

Microchip MPLAB XC8 Assembler V2.32 build 20210201212658 
                                                                                               Fri Dec 24 09:17:15 2021

Microchip MPLAB XC8 C Compiler v2.32 (Free license) build 20210201212658 Og1 
     1                           	processor	16F877A
     2                           	pagewidth 120
     3                           	opt	flic
     4                           	psect	idataCOMMON,global,class=CODE,delta=2,noexec
     5                           	psect	strings,global,class=STRING,delta=2,noexec
     6                           	psect	stringtext,global,reloc=256,class=STRCODE,delta=2,noexec
     7                           	psect	cinit,global,class=CODE,merge=1,delta=2
     8                           	psect	bssCOMMON,global,class=COMMON,space=1,delta=1,noexec
     9                           	psect	dataCOMMON,global,class=COMMON,space=1,delta=1,noexec
    10                           	psect	bssBANK0,global,class=BANK0,space=1,delta=1,noexec
    11                           	psect	clrtext,global,class=CODE,delta=2
    12                           	psect	cstackCOMMON,global,class=COMMON,space=1,delta=1,noexec
    13                           	psect	cstackBANK0,global,class=BANK0,space=1,delta=1,noexec
    14                           	psect	maintext,global,class=CODE,split=1,delta=2
    15                           	psect	text1,local,class=CODE,merge=1,delta=2
    16                           	psect	text2,local,class=CODE,merge=1,delta=2
    17                           	psect	text3,local,class=CODE,merge=1,delta=2
    18                           	psect	text4,local,class=CODE,merge=1,delta=2
    19                           	psect	text5,local,class=CODE,merge=1,delta=2
    20                           	psect	text6,local,class=CODE,merge=1,delta=2,group=1
    21                           	psect	text7,local,class=CODE,merge=1,delta=2,group=1
    22                           	psect	text8,local,class=CODE,merge=1,delta=2,group=1
    23                           	psect	text9,local,class=CODE,merge=1,delta=2
    24                           	psect	text10,local,class=CODE,merge=1,delta=2
    25                           	psect	text11,local,class=CODE,merge=1,delta=2
    26                           	psect	text12,local,class=CODE,merge=1,delta=2
    27                           	psect	text13,local,class=CODE,merge=1,delta=2
    28                           	psect	text14,local,class=CODE,merge=1,delta=2
    29                           	psect	text15,local,class=CODE,merge=1,delta=2
    30                           	psect	text16,local,class=CODE,merge=1,delta=2
    31                           	psect	text17,local,class=CODE,merge=1,delta=2
    32                           	psect	text18,local,class=CODE,merge=1,delta=2
    33                           	psect	text19,local,class=CODE,merge=1,delta=2
    34                           	psect	text20,local,class=CODE,merge=1,delta=2
    35                           	psect	text21,local,class=CODE,merge=1,delta=2
    36                           	psect	intentry,global,class=CODE,delta=2
    37                           	psect	config,global,abs,ovrld,class=CONFIG,space=4,delta=2,noexec
    38                           	dabs	1,0x7E,2
    39  0000                     
    40                           ; Version 2.20
    41                           ; Generated 12/02/2020 GMT
    42                           ; 
    43                           ; Copyright © 2020, Microchip Technology Inc. and its subsidiaries ("Microchip")
    44                           ; All rights reserved.
    45                           ; 
    46                           ; This software is developed by Microchip Technology Inc. and its subsidiaries ("Microch
      +                          ip").
    47                           ; 
    48                           ; Redistribution and use in source and binary forms, with or without modification, are
    49                           ; permitted provided that the following conditions are met:
    50                           ; 
    51                           ;     1. Redistributions of source code must retain the above copyright notice, this lis
      +                          t of
    52                           ;        conditions and the following disclaimer.
    53                           ; 
    54                           ;     2. Redistributions in binary form must reproduce the above copyright notice, this 
      +                          list
    55                           ;        of conditions and the following disclaimer in the documentation and/or other
    56                           ;        materials provided with the distribution.
    57                           ; 
    58                           ;     3. Microchip's name may not be used to endorse or promote products derived from th
      +                          is
    59                           ;        software without specific prior written permission.
    60                           ; 
    61                           ; THIS SOFTWARE IS PROVIDED BY MICROCHIP "AS IS" AND ANY EXPRESS OR IMPLIED WARRANTIES,
    62                           ; INCLUDING, BUT NOT LIMITED TO, THE IMPLIED WARRANTIES OF MERCHANTABILITY AND FITNESS F
      +                          OR
    63                           ; PURPOSE ARE DISCLAIMED.  IN NO EVENT SHALL MICROCHIP BE LIABLE FOR ANY DIRECT, INDIREC
      +                          T,
    64                           ; INCIDENTAL, SPECIAL, EXEMPLARY, OR CONSEQUENTIAL DAMAGES (INCLUDING BUT NOT LIMITED TO
    65                           ; PROCUREMENT OF SUBSTITUTE GOODS OR SERVICES; LOSS OF USE, DATA OR PROFITS; OR BUSINESS
    66                           ; INTERRUPTION) HOWSOEVER CAUSED AND ON ANY THEORY OF LIABILITY, WHETHER IN CONTRACT, ST
      +                          RICT
    67                           ; LIABILITY, OR TORT (INCLUDING NEGLIGENCE OR OTHERWISE) ARISING IN ANY WAY OUT OF THE U
      +                          SE OF
    68                           ; THIS SOFTWARE, EVEN IF ADVISED OF THE POSSIBILITY OF SUCH DAMAGE.
    69                           ; 
    70                           ; 
    71                           ; Code-generator required, PIC16F877A Definitions
    72                           ; 
    73                           ; SFR Addresses
    74  0000                     	;# 
    75  0001                     	;# 
    76  0002                     	;# 
    77  0003                     	;# 
    78  0004                     	;# 
    79  0005                     	;# 
    80  0006                     	;# 
    81  0007                     	;# 
    82  0008                     	;# 
    83  0009                     	;# 
    84  000A                     	;# 
    85  000B                     	;# 
    86  000C                     	;# 
    87  000D                     	;# 
    88  000E                     	;# 
    89  000E                     	;# 
    90  000F                     	;# 
    91  0010                     	;# 
    92  0011                     	;# 
    93  0012                     	;# 
    94  0013                     	;# 
    95  0014                     	;# 
    96  0015                     	;# 
    97  0015                     	;# 
    98  0016                     	;# 
    99  0017                     	;# 
   100  0018                     	;# 
   101  0019                     	;# 
   102  001A                     	;# 
   103  001B                     	;# 
   104  001B                     	;# 
   105  001C                     	;# 
   106  001D                     	;# 
   107  001E                     	;# 
   108  001F                     	;# 
   109  0081                     	;# 
   110  0085                     	;# 
   111  0086                     	;# 
   112  0087                     	;# 
   113  0088                     	;# 
   114  0089                     	;# 
   115  008C                     	;# 
   116  008D                     	;# 
   117  008E                     	;# 
   118  0091                     	;# 
   119  0092                     	;# 
   120  0093                     	;# 
   121  0094                     	;# 
   122  0098                     	;# 
   123  0099                     	;# 
   124  009C                     	;# 
   125  009D                     	;# 
   126  009E                     	;# 
   127  009F                     	;# 
   128  010C                     	;# 
   129  010D                     	;# 
   130  010E                     	;# 
   131  010F                     	;# 
   132  018C                     	;# 
   133  018D                     	;# 
   134  0000                     	;# 
   135  0001                     	;# 
   136  0002                     	;# 
   137  0003                     	;# 
   138  0004                     	;# 
   139  0005                     	;# 
   140  0006                     	;# 
   141  0007                     	;# 
   142  0008                     	;# 
   143  0009                     	;# 
   144  000A                     	;# 
   145  000B                     	;# 
   146  000C                     	;# 
   147  000D                     	;# 
   148  000E                     	;# 
   149  000E                     	;# 
   150  000F                     	;# 
   151  0010                     	;# 
   152  0011                     	;# 
   153  0012                     	;# 
   154  0013                     	;# 
   155  0014                     	;# 
   156  0015                     	;# 
   157  0015                     	;# 
   158  0016                     	;# 
   159  0017                     	;# 
   160  0018                     	;# 
   161  0019                     	;# 
   162  001A                     	;# 
   163  001B                     	;# 
   164  001B                     	;# 
   165  001C                     	;# 
   166  001D                     	;# 
   167  001E                     	;# 
   168  001F                     	;# 
   169  0081                     	;# 
   170  0085                     	;# 
   171  0086                     	;# 
   172  0087                     	;# 
   173  0088                     	;# 
   174  0089                     	;# 
   175  008C                     	;# 
   176  008D                     	;# 
   177  008E                     	;# 
   178  0091                     	;# 
   179  0092                     	;# 
   180  0093                     	;# 
   181  0094                     	;# 
   182  0098                     	;# 
   183  0099                     	;# 
   184  009C                     	;# 
   185  009D                     	;# 
   186  009E                     	;# 
   187  009F                     	;# 
   188  010C                     	;# 
   189  010D                     	;# 
   190  010E                     	;# 
   191  010F                     	;# 
   192  018C                     	;# 
   193  018D                     	;# 
   194  0000                     	;# 
   195  0001                     	;# 
   196  0002                     	;# 
   197  0003                     	;# 
   198  0004                     	;# 
   199  0005                     	;# 
   200  0006                     	;# 
   201  0007                     	;# 
   202  0008                     	;# 
   203  0009                     	;# 
   204  000A                     	;# 
   205  000B                     	;# 
   206  000C                     	;# 
   207  000D                     	;# 
   208  000E                     	;# 
   209  000E                     	;# 
   210  000F                     	;# 
   211  0010                     	;# 
   212  0011                     	;# 
   213  0012                     	;# 
   214  0013                     	;# 
   215  0014                     	;# 
   216  0015                     	;# 
   217  0015                     	;# 
   218  0016                     	;# 
   219  0017                     	;# 
   220  0018                     	;# 
   221  0019                     	;# 
   222  001A                     	;# 
   223  001B                     	;# 
   224  001B                     	;# 
   225  001C                     	;# 
   226  001D                     	;# 
   227  001E                     	;# 
   228  001F                     	;# 
   229  0081                     	;# 
   230  0085                     	;# 
   231  0086                     	;# 
   232  0087                     	;# 
   233  0088                     	;# 
   234  0089                     	;# 
   235  008C                     	;# 
   236  008D                     	;# 
   237  008E                     	;# 
   238  0091                     	;# 
   239  0092                     	;# 
   240  0093                     	;# 
   241  0094                     	;# 
   242  0098                     	;# 
   243  0099                     	;# 
   244  009C                     	;# 
   245  009D                     	;# 
   246  009E                     	;# 
   247  009F                     	;# 
   248  010C                     	;# 
   249  010D                     	;# 
   250  010E                     	;# 
   251  010F                     	;# 
   252  018C                     	;# 
   253  018D                     	;# 
   254  0000                     	;# 
   255  0001                     	;# 
   256  0002                     	;# 
   257  0003                     	;# 
   258  0004                     	;# 
   259  0005                     	;# 
   260  0006                     	;# 
   261  0007                     	;# 
   262  0008                     	;# 
   263  0009                     	;# 
   264  000A                     	;# 
   265  000B                     	;# 
   266  000C                     	;# 
   267  000D                     	;# 
   268  000E                     	;# 
   269  000E                     	;# 
   270  000F                     	;# 
   271  0010                     	;# 
   272  0011                     	;# 
   273  0012                     	;# 
   274  0013                     	;# 
   275  0014                     	;# 
   276  0015                     	;# 
   277  0015                     	;# 
   278  0016                     	;# 
   279  0017                     	;# 
   280  0018                     	;# 
   281  0019                     	;# 
   282  001A                     	;# 
   283  001B                     	;# 
   284  001B                     	;# 
   285  001C                     	;# 
   286  001D                     	;# 
   287  001E                     	;# 
   288  001F                     	;# 
   289  0081                     	;# 
   290  0085                     	;# 
   291  0086                     	;# 
   292  0087                     	;# 
   293  0088                     	;# 
   294  0089                     	;# 
   295  008C                     	;# 
   296  008D                     	;# 
   297  008E                     	;# 
   298  0091                     	;# 
   299  0092                     	;# 
   300  0093                     	;# 
   301  0094                     	;# 
   302  0098                     	;# 
   303  0099                     	;# 
   304  009C                     	;# 
   305  009D                     	;# 
   306  009E                     	;# 
   307  009F                     	;# 
   308  010C                     	;# 
   309  010D                     	;# 
   310  010E                     	;# 
   311  010F                     	;# 
   312  018C                     	;# 
   313  018D                     	;# 
   314  0000                     	;# 
   315  0001                     	;# 
   316  0002                     	;# 
   317  0003                     	;# 
   318  0004                     	;# 
   319  0005                     	;# 
   320  0006                     	;# 
   321  0007                     	;# 
   322  0008                     	;# 
   323  0009                     	;# 
   324  000A                     	;# 
   325  000B                     	;# 
   326  000C                     	;# 
   327  000D                     	;# 
   328  000E                     	;# 
   329  000E                     	;# 
   330  000F                     	;# 
   331  0010                     	;# 
   332  0011                     	;# 
   333  0012                     	;# 
   334  0013                     	;# 
   335  0014                     	;# 
   336  0015                     	;# 
   337  0015                     	;# 
   338  0016                     	;# 
   339  0017                     	;# 
   340  0018                     	;# 
   341  0019                     	;# 
   342  001A                     	;# 
   343  001B                     	;# 
   344  001B                     	;# 
   345  001C                     	;# 
   346  001D                     	;# 
   347  001E                     	;# 
   348  001F                     	;# 
   349  0081                     	;# 
   350  0085                     	;# 
   351  0086                     	;# 
   352  0087                     	;# 
   353  0088                     	;# 
   354  0089                     	;# 
   355  008C                     	;# 
   356  008D                     	;# 
   357  008E                     	;# 
   358  0091                     	;# 
   359  0092                     	;# 
   360  0093                     	;# 
   361  0094                     	;# 
   362  0098                     	;# 
   363  0099                     	;# 
   364  009C                     	;# 
   365  009D                     	;# 
   366  009E                     	;# 
   367  009F                     	;# 
   368  010C                     	;# 
   369  010D                     	;# 
   370  010E                     	;# 
   371  010F                     	;# 
   372  018C                     	;# 
   373  018D                     	;# 
   374  0000                     	;# 
   375  0001                     	;# 
   376  0002                     	;# 
   377  0003                     	;# 
   378  0004                     	;# 
   379  0005                     	;# 
   380  0006                     	;# 
   381  0007                     	;# 
   382  0008                     	;# 
   383  0009                     	;# 
   384  000A                     	;# 
   385  000B                     	;# 
   386  000C                     	;# 
   387  000D                     	;# 
   388  000E                     	;# 
   389  000E                     	;# 
   390  000F                     	;# 
   391  0010                     	;# 
   392  0011                     	;# 
   393  0012                     	;# 
   394  0013                     	;# 
   395  0014                     	;# 
   396  0015                     	;# 
   397  0015                     	;# 
   398  0016                     	;# 
   399  0017                     	;# 
   400  0018                     	;# 
   401  0019                     	;# 
   402  001A                     	;# 
   403  001B                     	;# 
   404  001B                     	;# 
   405  001C                     	;# 
   406  001D                     	;# 
   407  001E                     	;# 
   408  001F                     	;# 
   409  0081                     	;# 
   410  0085                     	;# 
   411  0086                     	;# 
   412  0087                     	;# 
   413  0088                     	;# 
   414  0089                     	;# 
   415  008C                     	;# 
   416  008D                     	;# 
   417  008E                     	;# 
   418  0091                     	;# 
   419  0092                     	;# 
   420  0093                     	;# 
   421  0094                     	;# 
   422  0098                     	;# 
   423  0099                     	;# 
   424  009C                     	;# 
   425  009D                     	;# 
   426  009E                     	;# 
   427  009F                     	;# 
   428  010C                     	;# 
   429  010D                     	;# 
   430  010E                     	;# 
   431  010F                     	;# 
   432  018C                     	;# 
   433  018D                     	;# 
   434                           
   435                           	psect	idataCOMMON
   436  07FE                     __pidataCOMMON:
   437                           
   438                           ;initializer for read_matrix_keypad@once
   439  07FE  3401               	retlw	1
   440  0008                     _PORTD	set	8
   441  0061                     _TMR2IF	set	97
   442  0091                     _T2CKPS1	set	145
   443  0090                     _T2CKPS0	set	144
   444  0032                     _RB2	set	50
   445  0031                     _RB1	set	49
   446  0030                     _RB0	set	48
   447  0040                     _RD0	set	64
   448  0041                     _RD1	set	65
   449  0042                     _RD2	set	66
   450  0043                     _RD3	set	67
   451  0049                     _RE1	set	73
   452  004A                     _RE2	set	74
   453  0033                     _RB3	set	51
   454  0092                     _TMR2ON	set	146
   455  0039                     _RC1	set	57
   456  003A                     _RC2	set	58
   457  005F                     _GIE	set	95
   458  005E                     _PEIE	set	94
   459  0092                     _PR2	set	146
   460  0086                     _TRISB	set	134
   461  0088                     _TRISD	set	136
   462  0461                     _TMR2IE	set	1121
   463  040F                     _nRBPU	set	1039
   464  0449                     _TRISE1	set	1097
   465  044A                     _TRISE2	set	1098
   466  0433                     _TRISB3	set	1075
   467  0439                     _TRISC1	set	1081
   468  043A                     _TRISC2	set	1082
   469                           
   470                           	psect	strings
   471  0800                     __pstrings:
   472  0800                     stringtab:
   473  0800                     __stringtab:
   474                           
   475                           ;	String table - string pointers are 2 bytes each
   476  0800  1BFF               	btfsc	btemp+1,7
   477  0801  280A               	ljmp	stringcode
   478  0802  1383               	bcf	3,7
   479  0803  187F               	btfsc	btemp+1,0
   480  0804  1783               	bsf	3,7
   481  0805  0800               	movf	0,w
   482  0806  0A84               	incf	4,f
   483  0807  1903               	skipnz
   484  0808  0AFF               	incf	btemp+1,f
   485  0809  0008               	return
   486  080A                     stringcode:
   487  080A  087F               	movf	btemp+1,w
   488  080B  397F               	andlw	127
   489  080C  008A               	movwf	10
   490  080D  0804               	movf	4,w
   491  080E  0A84               	incf	4,f
   492  080F  1903               	skipnz
   493  0810  0AFF               	incf	btemp+1,f
   494  0811  0082               	movwf	2
   495  0812                     __stringbase:
   496  0812                     __end_of__stringtab:
   497                           
   498                           	psect	stringtext
   499  0600                     __pstringtext:
   500  0600                     STR_23:
   501  0600  3420               	retlw	32	;' '
   502  0601  3420               	retlw	32	;' '
   503  0602  3450               	retlw	80	;'P'
   504  0603  3472               	retlw	114	;'r'
   505  0604  3465               	retlw	101	;'e'
   506  0605  342D               	retlw	45	;'-'
   507  0606  3448               	retlw	72	;'H'
   508  0607  3465               	retlw	101	;'e'
   509  0608  3461               	retlw	97	;'a'
   510  0609  3474               	retlw	116	;'t'
   511  060A  3469               	retlw	105	;'i'
   512  060B  346E               	retlw	110	;'n'
   513  060C  3467               	retlw	103	;'g'
   514  060D  3420               	retlw	32	;' '
   515  060E  3420               	retlw	32	;' '
   516  060F  3420               	retlw	32	;' '
   517  0610  3400               	retlw	0
   518  0611                     STR_2:
   519  0611  3420               	retlw	32	;' '
   520  0612  3420               	retlw	32	;' '
   521  0613  3450               	retlw	80	;'P'
   522  0614  346F               	retlw	111	;'o'
   523  0615  3477               	retlw	119	;'w'
   524  0616  3465               	retlw	101	;'e'
   525  0617  3472               	retlw	114	;'r'
   526  0618  3469               	retlw	105	;'i'
   527  0619  346E               	retlw	110	;'n'
   528  061A  3467               	retlw	103	;'g'
   529  061B  3420               	retlw	32	;' '
   530  061C  344F               	retlw	79	;'O'
   531  061D  346E               	retlw	110	;'n'
   532  061E  3420               	retlw	32	;' '
   533  061F  3420               	retlw	32	;' '
   534  0620  3420               	retlw	32	;' '
   535  0621  3400               	retlw	0
   536  0622                     STR_1:
   537  0622  3420               	retlw	32	;' '
   538  0623  3450               	retlw	80	;'P'
   539  0624  346F               	retlw	111	;'o'
   540  0625  3477               	retlw	119	;'w'
   541  0626  3465               	retlw	101	;'e'
   542  0627  3472               	retlw	114	;'r'
   543  0628  3420               	retlw	32	;' '
   544  0629  3420               	retlw	32	;' '
   545  062A  343D               	retlw	61	;'='
   546  062B  3420               	retlw	32	;' '
   547  062C  3439               	retlw	57	;'9'
   548  062D  3430               	retlw	48	;'0'
   549  062E  3430               	retlw	48	;'0'
   550  062F  3457               	retlw	87	;'W'
   551  0630  3420               	retlw	32	;' '
   552  0631  3420               	retlw	32	;' '
   553  0632  3400               	retlw	0
   554  0633                     STR_3:
   555  0633  3420               	retlw	32	;' '
   556  0634  344D               	retlw	77	;'M'
   557  0635  3469               	retlw	105	;'i'
   558  0636  3463               	retlw	99	;'c'
   559  0637  3472               	retlw	114	;'r'
   560  0638  346F               	retlw	111	;'o'
   561  0639  3477               	retlw	119	;'w'
   562  063A  3461               	retlw	97	;'a'
   563  063B  3476               	retlw	118	;'v'
   564  063C  3465               	retlw	101	;'e'
   565  063D  3420               	retlw	32	;' '
   566  063E  344F               	retlw	79	;'O'
   567  063F  3476               	retlw	118	;'v'
   568  0640  3465               	retlw	101	;'e'
   569  0641  346E               	retlw	110	;'n'
   570  0642  3420               	retlw	32	;' '
   571  0643  3400               	retlw	0
   572  0644                     STR_8:
   573  0644  3453               	retlw	83	;'S'
   574  0645  3445               	retlw	69	;'E'
   575  0646  3454               	retlw	84	;'T'
   576  0647  3420               	retlw	32	;' '
   577  0648  3454               	retlw	84	;'T'
   578  0649  3449               	retlw	73	;'I'
   579  064A  344D               	retlw	77	;'M'
   580  064B  3445               	retlw	69	;'E'
   581  064C  3420               	retlw	32	;' '
   582  064D  3428               	retlw	40	;'('
   583  064E  344D               	retlw	77	;'M'
   584  064F  344D               	retlw	77	;'M'
   585  0650  343A               	retlw	58	;':'
   586  0651  3453               	retlw	83	;'S'
   587  0652  3453               	retlw	83	;'S'
   588  0653  3429               	retlw	41	;')'
   589  0654  3400               	retlw	0
   590  0655                     STR_13:
   591  0655  3444               	retlw	68	;'D'
   592  0656  344F               	retlw	79	;'O'
   593  0657  344F               	retlw	79	;'O'
   594  0658  3452               	retlw	82	;'R'
   595  0659  3420               	retlw	32	;' '
   596  065A  3453               	retlw	83	;'S'
   597  065B  3454               	retlw	84	;'T'
   598  065C  3441               	retlw	65	;'A'
   599  065D  3454               	retlw	84	;'T'
   600  065E  3455               	retlw	85	;'U'
   601  065F  3453               	retlw	83	;'S'
   602  0660  343A               	retlw	58	;':'
   603  0661  344F               	retlw	79	;'O'
   604  0662  3450               	retlw	80	;'P'
   605  0663  3445               	retlw	69	;'E'
   606  0664  344E               	retlw	78	;'N'
   607  0665  3400               	retlw	0
   608  0666                     STR_10:
   609  0666  342A               	retlw	42	;'*'
   610  0667  343A               	retlw	58	;':'
   611  0668  3443               	retlw	67	;'C'
   612  0669  344C               	retlw	76	;'L'
   613  066A  3445               	retlw	69	;'E'
   614  066B  3441               	retlw	65	;'A'
   615  066C  3452               	retlw	82	;'R'
   616  066D  3420               	retlw	32	;' '
   617  066E  3420               	retlw	32	;' '
   618  066F  3423               	retlw	35	;'#'
   619  0670  343A               	retlw	58	;':'
   620  0671  3445               	retlw	69	;'E'
   621  0672  344E               	retlw	78	;'N'
   622  0673  3454               	retlw	84	;'T'
   623  0674  3445               	retlw	69	;'E'
   624  0675  3452               	retlw	82	;'R'
   625  0676  3400               	retlw	0
   626  0677                     STR_16:
   627  0677  3420               	retlw	32	;' '
   628  0678  3434               	retlw	52	;'4'
   629  0679  342E               	retlw	46	;'.'
   630  067A  3453               	retlw	83	;'S'
   631  067B  3474               	retlw	116	;'t'
   632  067C  3461               	retlw	97	;'a'
   633  067D  3472               	retlw	114	;'r'
   634  067E  3474               	retlw	116	;'t'
   635  067F  342F               	retlw	47	;'/'
   636  0680  3452               	retlw	82	;'R'
   637  0681  3465               	retlw	101	;'e'
   638  0682  3473               	retlw	115	;'s'
   639  0683  3475               	retlw	117	;'u'
   640  0684  346D               	retlw	109	;'m'
   641  0685  3465               	retlw	101	;'e'
   642  0686  3400               	retlw	0
   643  0687                     STR_14:
   644  0687  3450               	retlw	80	;'P'
   645  0688  346C               	retlw	108	;'l'
   646  0689  3465               	retlw	101	;'e'
   647  068A  3461               	retlw	97	;'a'
   648  068B  3473               	retlw	115	;'s'
   649  068C  3465               	retlw	101	;'e'
   650  068D  3420               	retlw	32	;' '
   651  068E  3443               	retlw	67	;'C'
   652  068F  344C               	retlw	76	;'L'
   653  0690  344F               	retlw	79	;'O'
   654  0691  3453               	retlw	83	;'S'
   655  0692  3445               	retlw	69	;'E'
   656  0693  3421               	retlw	33	;'!'
   657  0694  3421               	retlw	33	;'!'
   658  0695  3400               	retlw	0
   659  0696                     STR_20:
   660  0696  3420               	retlw	32	;' '
   661  0697  3453               	retlw	83	;'S'
   662  0698  3445               	retlw	69	;'E'
   663  0699  3454               	retlw	84	;'T'
   664  069A  3420               	retlw	32	;' '
   665  069B  3454               	retlw	84	;'T'
   666  069C  3445               	retlw	69	;'E'
   667  069D  344D               	retlw	77	;'M'
   668  069E  3450               	retlw	80	;'P'
   669  069F  3420               	retlw	32	;' '
   670  06A0  3428               	retlw	40	;'('
   671  06A1  3420               	retlw	32	;' '
   672  06A2  3443               	retlw	67	;'C'
   673  06A3  3429               	retlw	41	;')'
   674  06A4  3400               	retlw	0
   675  06A5                     STR_6:
   676  06A5  3433               	retlw	51	;'3'
   677  06A6  342E               	retlw	46	;'.'
   678  06A7  3443               	retlw	67	;'C'
   679  06A8  346F               	retlw	111	;'o'
   680  06A9  346E               	retlw	110	;'n'
   681  06AA  3476               	retlw	118	;'v'
   682  06AB  3465               	retlw	101	;'e'
   683  06AC  3463               	retlw	99	;'c'
   684  06AD  3474               	retlw	116	;'t'
   685  06AE  3469               	retlw	105	;'i'
   686  06AF  346F               	retlw	111	;'o'
   687  06B0  346E               	retlw	110	;'n'
   688  06B1  3400               	retlw	0
   689  06B2                     STR_24:
   690  06B2  3454               	retlw	84	;'T'
   691  06B3  3469               	retlw	105	;'i'
   692  06B4  346D               	retlw	109	;'m'
   693  06B5  3465               	retlw	101	;'e'
   694  06B6  3420               	retlw	32	;' '
   695  06B7  3452               	retlw	82	;'R'
   696  06B8  3465               	retlw	101	;'e'
   697  06B9  346D               	retlw	109	;'m'
   698  06BA  342E               	retlw	46	;'.'
   699  06BB  343D               	retlw	61	;'='
   700  06BC  3400               	retlw	0
   701  06BD                     STR_19:
   702  06BD  3454               	retlw	84	;'T'
   703  06BE  3449               	retlw	73	;'I'
   704  06BF  344D               	retlw	77	;'M'
   705  06C0  3445               	retlw	69	;'E'
   706  06C1  3420               	retlw	32	;' '
   707  06C2  3455               	retlw	85	;'U'
   708  06C3  3450               	retlw	80	;'P'
   709  06C4  3421               	retlw	33	;'!'
   710  06C5  3421               	retlw	33	;'!'
   711  06C6  3400               	retlw	0
   712  06C7                     STR_15:
   713  06C7  3420               	retlw	32	;' '
   714  06C8  3454               	retlw	84	;'T'
   715  06C9  3449               	retlw	73	;'I'
   716  06CA  344D               	retlw	77	;'M'
   717  06CB  3445               	retlw	69	;'E'
   718  06CC  3420               	retlw	32	;' '
   719  06CD  343D               	retlw	61	;'='
   720  06CE  3420               	retlw	32	;' '
   721  06CF  3400               	retlw	0
   722  06D0                     STR_17:
   723  06D0  3420               	retlw	32	;' '
   724  06D1  3435               	retlw	53	;'5'
   725  06D2  342E               	retlw	46	;'.'
   726  06D3  3450               	retlw	80	;'P'
   727  06D4  3461               	retlw	97	;'a'
   728  06D5  3475               	retlw	117	;'u'
   729  06D6  3473               	retlw	115	;'s'
   730  06D7  3465               	retlw	101	;'e'
   731  06D8  3400               	retlw	0
   732  06D9                     STR_21:
   733  06D9  3420               	retlw	32	;' '
   734  06DA  3454               	retlw	84	;'T'
   735  06DB  3445               	retlw	69	;'E'
   736  06DC  344D               	retlw	77	;'M'
   737  06DD  3450               	retlw	80	;'P'
   738  06DE  3420               	retlw	32	;' '
   739  06DF  343D               	retlw	61	;'='
   740  06E0  3400               	retlw	0
   741  06E1                     STR_5:
   742  06E1  3432               	retlw	50	;'2'
   743  06E2  342E               	retlw	46	;'.'
   744  06E3  3447               	retlw	71	;'G'
   745  06E4  3472               	retlw	114	;'r'
   746  06E5  3469               	retlw	105	;'i'
   747  06E6  346C               	retlw	108	;'l'
   748  06E7  346C               	retlw	108	;'l'
   749  06E8  3400               	retlw	0
   750  06E9                     STR_4:
   751  06E9  3431               	retlw	49	;'1'
   752  06EA  342E               	retlw	46	;'.'
   753  06EB  344D               	retlw	77	;'M'
   754  06EC  3469               	retlw	105	;'i'
   755  06ED  3463               	retlw	99	;'c'
   756  06EE  3472               	retlw	114	;'r'
   757  06EF  346F               	retlw	111	;'o'
   758  06F0  3400               	retlw	0
   759  06F1                     STR_18:
   760  06F1  3420               	retlw	32	;' '
   761  06F2  3436               	retlw	54	;'6'
   762  06F3  342E               	retlw	46	;'.'
   763  06F4  3453               	retlw	83	;'S'
   764  06F5  3474               	retlw	116	;'t'
   765  06F6  346F               	retlw	111	;'o'
   766  06F7  3470               	retlw	112	;'p'
   767  06F8  3400               	retlw	0
   768  06F9                     STR_7:
   769  06F9  3434               	retlw	52	;'4'
   770  06FA  342E               	retlw	46	;'.'
   771  06FB  3453               	retlw	83	;'S'
   772  06FC  3474               	retlw	116	;'t'
   773  06FD  3461               	retlw	97	;'a'
   774  06FE  3472               	retlw	114	;'r'
   775  06FF  3474               	retlw	116	;'t'
   776  0700  3400               	retlw	0
   777  0701                     STR_9:
   778  0701  3454               	retlw	84	;'T'
   779  0702  3449               	retlw	73	;'I'
   780  0703  344D               	retlw	77	;'M'
   781  0704  3445               	retlw	69	;'E'
   782  0705  342D               	retlw	45	;'-'
   783  0706  3420               	retlw	32	;' '
   784  0707  3400               	retlw	0
   785  060E                     
   786                           	psect	cinit
   787  000F                     start_initialization:	
   788                           ; #config settings
   789                           
   790  000F                     __initialization:
   791                           
   792                           ; Initialize objects allocated to COMMON
   793  000F  120A  118A  27FE  120A  118A  	fcall	__pidataCOMMON	;fetch initializer
   794  0014  00FA               	movwf	__pdataCOMMON& (0+127)
   795                           
   796                           ; Clear objects allocated to BANK0
   797  0015  1383               	bcf	3,7	;select IRP bank0
   798  0016  3020               	movlw	low __pbssBANK0
   799  0017  0084               	movwf	4
   800  0018  303B               	movlw	low (__pbssBANK0+27)
   801  0019  120A  158A  24B3  120A  118A  	fcall	clear_ram0
   802                           
   803                           ; Clear objects allocated to COMMON
   804  001E  01F9               	clrf	__pbssCOMMON& (0+127)
   805  001F                     end_of_initialization:	
   806                           ;End of C runtime variable initialization code
   807                           
   808  001F                     __end_of__initialization:
   809  001F  0183               	clrf	3
   810  0020  120A  118A  2BD4   	ljmp	_main	;jump to C main() function
   811                           
   812                           	psect	bssCOMMON
   813  0079                     __pbssCOMMON:
   814  0079                     _flag:
   815  0079                     	ds	1
   816                           
   817                           	psect	dataCOMMON
   818  007A                     __pdataCOMMON:
   819  007A                     read_matrix_keypad@once:
   820  007A                     	ds	1
   821                           
   822                           	psect	bssBANK0
   823  0020                     __pbssBANK0:
   824  0020                     isr@count:
   825  0020                     	ds	2
   826  0022                     set_temp@key_count:
   827  0022                     	ds	2
   828  0024                     set_temp@blink:
   829  0024                     	ds	2
   830  0026                     set_temp@wait:
   831  0026                     	ds	2
   832  0028                     set_time@blink_pos:
   833  0028                     	ds	2
   834  002A                     set_time@key_count:
   835  002A                     	ds	2
   836  002C                     set_time@blink:
   837  002C                     	ds	2
   838  002E                     set_time@wait:
   839  002E                     	ds	2
   840  0030                     _start_flag:
   841  0030                     	ds	1
   842  0031                     _convec_mode_op:
   843  0031                     	ds	1
   844  0032                     _reset_flag:
   845  0032                     	ds	1
   846  0033                     _operation_mode:
   847  0033                     	ds	1
   848  0034                     _temp:
   849  0034                     	ds	1
   850  0035                     _min:
   851  0035                     	ds	1
   852  0036                     _sec:
   853  0036                     	ds	1
   854  0037                     set_temp@temp_arr:
   855  0037                     	ds	4
   856                           
   857                           	psect	clrtext
   858  0CB3                     clear_ram0:	
   859                           ;	Called with FSR containing the base address, and
   860                           ;	W with the last address+1
   861                           
   862  0CB3  0064               	clrwdt	;clear the watchdog before getting into this loop
   863  0CB4                     clrloop0:
   864  0CB4  0180               	clrf	0	;clear RAM location pointed to by FSR
   865  0CB5  0A84               	incf	4,f	;increment pointer
   866  0CB6  0604               	xorwf	4,w	;XOR with final address
   867  0CB7  1903               	btfsc	3,2	;have we reached the end yet?
   868  0CB8  3400               	retlw	0	;all done for this memory range, return
   869  0CB9  0604               	xorwf	4,w	;XOR again to restore value
   870  0CBA  2CB4               	goto	clrloop0	;do the next byte
   871                           
   872                           	psect	cstackCOMMON
   873  0070                     __pcstackCOMMON:
   874  0070                     ?_init_clcd:
   875  0070                     ?_init_matrix_keypad:	
   876                           ; 1 bytes @ 0x0
   877                           
   878  0070                     ?_init_timer2:	
   879                           ; 1 bytes @ 0x0
   880                           
   881  0070                     ?_power_on_screen:	
   882                           ; 1 bytes @ 0x0
   883                           
   884  0070                     ?_clear_clcd:	
   885                           ; 1 bytes @ 0x0
   886                           
   887  0070                     ?_read_matrix_keypad:	
   888                           ; 1 bytes @ 0x0
   889                           
   890  0070                     ?_cooking_mode_display:	
   891                           ; 1 bytes @ 0x0
   892                           
   893  0070                     ?_set_time:	
   894                           ; 1 bytes @ 0x0
   895                           
   896  0070                     ?_set_temp:	
   897                           ; 1 bytes @ 0x0
   898                           
   899  0070                     ?_time_display_screen:	
   900                           ; 1 bytes @ 0x0
   901                           
   902  0070                     ?_init_config:	
   903                           ; 1 bytes @ 0x0
   904                           
   905  0070                     ?_main:	
   906                           ; 1 bytes @ 0x0
   907                           
   908  0070                     ?_door_status_check:	
   909                           ; 1 bytes @ 0x0
   910                           
   911  0070                     ?_init_display_controller:	
   912                           ; 1 bytes @ 0x0
   913                           
   914  0070                     ?_scan_keypad:	
   915                           ; 1 bytes @ 0x0
   916                           
   917  0070                     ?_isr:	
   918                           ; 1 bytes @ 0x0
   919                           
   920  0070                     ??_isr:	
   921                           ; 1 bytes @ 0x0
   922                           
   923                           
   924                           ; 1 bytes @ 0x0
   925  0070                     	ds	3
   926  0073                     ??_init_matrix_keypad:
   927  0073                     ??_init_timer2:	
   928                           ; 1 bytes @ 0x3
   929                           
   930  0073                     ?_clcd_write:	
   931                           ; 1 bytes @ 0x3
   932                           
   933  0073                     ??_scan_keypad:	
   934                           ; 1 bytes @ 0x3
   935                           
   936  0073                     ?___bmul:	
   937                           ; 1 bytes @ 0x3
   938                           
   939  0073                     ?___awdiv:	
   940                           ; 1 bytes @ 0x3
   941                           
   942  0073                     clcd_write@mode:	
   943                           ; 2 bytes @ 0x3
   944                           
   945  0073                     ___bmul@multiplicand:	
   946                           ; 1 bytes @ 0x3
   947                           
   948  0073                     scan_keypad@i:	
   949                           ; 1 bytes @ 0x3
   950                           
   951  0073                     ___awdiv@divisor:	
   952                           ; 2 bytes @ 0x3
   953                           
   954                           
   955                           ; 2 bytes @ 0x3
   956  0073                     	ds	1
   957  0074                     ??_clcd_write:
   958  0074                     ??___bmul:	
   959                           ; 1 bytes @ 0x4
   960                           
   961                           
   962                           ; 1 bytes @ 0x4
   963  0074                     	ds	1
   964  0075                     ??_read_matrix_keypad:
   965  0075                     ___bmul@product:	
   966                           ; 1 bytes @ 0x5
   967                           
   968  0075                     ___awdiv@dividend:	
   969                           ; 1 bytes @ 0x5
   970                           
   971                           
   972                           ; 2 bytes @ 0x5
   973  0075                     	ds	1
   974  0076                     clcd_write@byte:
   975  0076                     read_matrix_keypad@mode:	
   976                           ; 1 bytes @ 0x6
   977                           
   978  0076                     ___bmul@multiplier:	
   979                           ; 1 bytes @ 0x6
   980                           
   981                           
   982                           ; 1 bytes @ 0x6
   983  0076                     	ds	1
   984  0077                     ??_clear_clcd:
   985  0077                     ??_clcd_print:	
   986                           ; 1 bytes @ 0x7
   987                           
   988  0077                     ??_cooking_mode_display:	
   989                           ; 1 bytes @ 0x7
   990                           
   991  0077                     ??_init_display_controller:	
   992                           ; 1 bytes @ 0x7
   993                           
   994  0077                     ??___awdiv:	
   995                           ; 1 bytes @ 0x7
   996                           
   997  0077                     read_matrix_keypad@key:	
   998                           ; 1 bytes @ 0x7
   999                           
  1000                           
  1001                           ; 1 bytes @ 0x7
  1002  0077                     	ds	1
  1003  0078                     ??_door_status_check:
  1004  0078                     ??___awmod:	
  1005                           ; 1 bytes @ 0x8
  1006                           
  1007                           
  1008                           ; 1 bytes @ 0x8
  1009  0078                     	ds	1
  1010  0079                     ??_init_clcd:
  1011  0079                     ??_clcd_putch:	
  1012                           ; 1 bytes @ 0x9
  1013                           
  1014  0079                     ??_init_config:	
  1015                           ; 1 bytes @ 0x9
  1016                           
  1017                           
  1018                           	psect	cstackBANK0
  1019  003B                     __pcstackBANK0:	
  1020                           ; 1 bytes @ 0x9
  1021                           
  1022  003B                     ?_clcd_print:
  1023  003B                     ___awdiv@counter:	
  1024                           ; 1 bytes @ 0x0
  1025                           
  1026  003B                     clcd_print@str:	
  1027                           ; 1 bytes @ 0x0
  1028                           
  1029                           
  1030                           ; 2 bytes @ 0x0
  1031  003B                     	ds	1
  1032  003C                     ___awdiv@sign:
  1033                           
  1034                           ; 1 bytes @ 0x1
  1035  003C                     	ds	1
  1036  003D                     clcd_print@addr:
  1037  003D                     ___awdiv@quotient:	
  1038                           ; 1 bytes @ 0x2
  1039                           
  1040                           
  1041                           ; 2 bytes @ 0x2
  1042  003D                     	ds	2
  1043  003F                     ?___awmod:
  1044  003F                     ___awmod@divisor:	
  1045                           ; 2 bytes @ 0x4
  1046                           
  1047                           
  1048                           ; 2 bytes @ 0x4
  1049  003F                     	ds	2
  1050  0041                     ___awmod@dividend:
  1051                           
  1052                           ; 2 bytes @ 0x6
  1053  0041                     	ds	2
  1054  0043                     ___awmod@counter:
  1055                           
  1056                           ; 1 bytes @ 0x8
  1057  0043                     	ds	1
  1058  0044                     ___awmod@sign:
  1059                           
  1060                           ; 1 bytes @ 0x9
  1061  0044                     	ds	1
  1062  0045                     ?_clcd_putch:
  1063  0045                     clcd_putch@addr:	
  1064                           ; 1 bytes @ 0xA
  1065                           
  1066                           
  1067                           ; 1 bytes @ 0xA
  1068  0045                     	ds	1
  1069  0046                     clcd_putch@data:
  1070                           
  1071                           ; 1 bytes @ 0xB
  1072  0046                     	ds	1
  1073  0047                     ??_power_on_screen:
  1074  0047                     ??_set_time:	
  1075                           ; 1 bytes @ 0xC
  1076                           
  1077  0047                     ??_set_temp:	
  1078                           ; 1 bytes @ 0xC
  1079                           
  1080  0047                     ??_time_display_screen:	
  1081                           ; 1 bytes @ 0xC
  1082                           
  1083                           
  1084                           ; 1 bytes @ 0xC
  1085  0047                     	ds	3
  1086  004A                     power_on_screen@i:
  1087  004A                     set_time@key:	
  1088                           ; 1 bytes @ 0xF
  1089                           
  1090  004A                     set_temp@key:	
  1091                           ; 1 bytes @ 0xF
  1092                           
  1093                           
  1094                           ; 1 bytes @ 0xF
  1095  004A                     	ds	1
  1096  004B                     power_on_screen@i_120:
  1097                           
  1098                           ; 1 bytes @ 0x10
  1099  004B                     	ds	1
  1100  004C                     ??_main:
  1101                           
  1102                           ; 1 bytes @ 0x11
  1103  004C                     	ds	3
  1104  004F                     main@key:
  1105                           
  1106                           ; 1 bytes @ 0x14
  1107  004F                     	ds	1
  1108                           
  1109                           	psect	maintext
  1110  03D4                     __pmaintext:	
  1111 ;;
  1112 ;;Main: autosize = 0, tempsize = 3, incstack = 0, save=0
  1113 ;;
  1114 ;; *************** function _main *****************
  1115 ;; Defined at:
  1116 ;;		line 44 in file "main.c"
  1117 ;; Parameters:    Size  Location     Type
  1118 ;;		None
  1119 ;; Auto vars:     Size  Location     Type
  1120 ;;  key             1   20[BANK0 ] unsigned char 
  1121 ;; Return value:  Size  Location     Type
  1122 ;;                  1    wreg      void 
  1123 ;; Registers used:
  1124 ;;		wreg, fsr0l, fsr0h, status,2, status,0, btemp+1, pclath, cstack
  1125 ;; Tracked objects:
  1126 ;;		On entry : B00/0
  1127 ;;		On exit  : 0/0
  1128 ;;		Unchanged: 0/0
  1129 ;; Data sizes:     COMMON   BANK0   BANK1   BANK3   BANK2
  1130 ;;      Params:         0       0       0       0       0
  1131 ;;      Locals:         0       1       0       0       0
  1132 ;;      Temps:          0       3       0       0       0
  1133 ;;      Totals:         0       4       0       0       0
  1134 ;;Total ram usage:        4 bytes
  1135 ;; Hardware stack levels required when called: 5
  1136 ;; This function calls:
  1137 ;;		_clcd_print
  1138 ;;		_clear_clcd
  1139 ;;		_cooking_mode_display
  1140 ;;		_init_config
  1141 ;;		_power_on_screen
  1142 ;;		_read_matrix_keypad
  1143 ;;		_set_temp
  1144 ;;		_set_time
  1145 ;;		_time_display_screen
  1146 ;; This function is called by:
  1147 ;;		Startup code after reset
  1148 ;; This function uses a non-reentrant model
  1149 ;;
  1150                           
  1151                           
  1152                           ;psect for function _main
  1153  03D4                     _main:
  1154  03D4                     l2725:	
  1155                           ;incstack = 0
  1156                           ; Regs used in _main: [wreg-fsr0h+status,2+status,0+btemp+1+pclath+cstack]
  1157                           
  1158                           
  1159                           ;main.c: 45:            clcd_print(" Power  = 900W  ",(0xC0 + 0));;main.c: 47:          
      +                            clear_clcd();
  1160  03D4  120A  158A  24F8  120A  118A  	fcall	_init_config
  1161  03D9                     l2727:
  1162                           
  1163                           ;main.c: 48:         }
  1164  03D9  120A  158A  2639  120A  118A  	fcall	_power_on_screen
  1165  03DE                     l2729:
  1166                           
  1167                           ;main.c: 49:         else if (key == 2 && (operation_mode != 0x05))
  1168  03DE  120A  118A  27F1  120A  118A  	fcall	_clear_clcd
  1169  03E3                     l2731:
  1170                           
  1171                           ;main.c: 50:         {
  1172  03E3  1283               	bcf	3,5	;RP0=0, select bank0
  1173  03E4  1303               	bcf	3,6	;RP1=0, select bank0
  1174  03E5  01B3               	clrf	_operation_mode
  1175  03E6  0AB3               	incf	_operation_mode,f
  1176  03E7                     l2733:
  1177                           
  1178                           ;main.c: 52:             reset_flag = 0x10;
  1179  03E7  3001               	movlw	1
  1180  03E8  120A  158A  2519  120A  118A  	fcall	_read_matrix_keypad
  1181  03ED  1283               	bcf	3,5	;RP0=0, select bank0
  1182  03EE  1303               	bcf	3,6	;RP1=0, select bank0
  1183  03EF  00CC               	movwf	??_main
  1184  03F0  084C               	movf	??_main,w
  1185  03F1  00CF               	movwf	main@key
  1186  03F2                     l2735:
  1187                           
  1188                           ;main.c: 53:             clear_clcd();
  1189  03F2  3002               	movlw	2
  1190  03F3  0633               	xorwf	_operation_mode,w
  1191  03F4  1903               	btfsc	3,2
  1192  03F5  2BF7               	goto	u2511
  1193  03F6  2BF8               	goto	u2510
  1194  03F7                     u2511:
  1195  03F7  2D15               	goto	l2837
  1196  03F8                     u2510:
  1197  03F8                     l2737:
  1198  03F8  3003               	movlw	3
  1199  03F9  0633               	xorwf	_operation_mode,w
  1200  03FA  1903               	btfsc	3,2
  1201  03FB  2BFD               	goto	u2521
  1202  03FC  2BFE               	goto	u2520
  1203  03FD                     u2521:
  1204  03FD  2D15               	goto	l2837
  1205  03FE                     u2520:
  1206  03FE                     l2739:
  1207  03FE  3004               	movlw	4
  1208  03FF  0633               	xorwf	_operation_mode,w
  1209  0400  1D03               	btfss	3,2
  1210  0401  2C03               	goto	u2531
  1211  0402  2C04               	goto	u2530
  1212  0403                     u2531:
  1213  0403  2C06               	goto	l2741
  1214  0404                     u2530:
  1215  0404  2D15               	goto	l2837
  1216  0405                     l73:
  1217                           
  1218                           ;main.c: 54:         };main.c: 56:         {
  1219  0405  2D15               	goto	l2837
  1220  0406                     l2741:
  1221  0406  034F               	decf	main@key,w
  1222  0407  1D03               	btfss	3,2
  1223  0408  2C0A               	goto	u2541
  1224  0409  2C0B               	goto	u2540
  1225  040A                     u2541:
  1226  040A  2C41               	goto	l2755
  1227  040B                     u2540:
  1228  040B                     l2743:
  1229  040B  3005               	movlw	5
  1230  040C  0633               	xorwf	_operation_mode,w
  1231  040D  1903               	btfsc	3,2
  1232  040E  2C10               	goto	u2551
  1233  040F  2C11               	goto	u2550
  1234  0410                     u2551:
  1235  0410  2C41               	goto	l2755
  1236  0411                     u2550:
  1237  0411                     l2745:
  1238                           
  1239                           ;main.c: 58:            convec_mode_op = 0X09;;main.c: 59:            reset_flag = 0x11;
  1240  0411  3002               	movlw	2
  1241  0412  00CC               	movwf	??_main
  1242  0413  084C               	movf	??_main,w
  1243  0414  00B3               	movwf	_operation_mode
  1244                           
  1245                           ;main.c: 60:            clear_clcd();
  1246  0415  3010               	movlw	16
  1247  0416  00CC               	movwf	??_main
  1248  0417  084C               	movf	??_main,w
  1249  0418  00B2               	movwf	_reset_flag
  1250  0419                     l2747:
  1251                           
  1252                           ;main.c: 61: 
  1253  0419  120A  118A  27F1  120A  118A  	fcall	_clear_clcd
  1254  041E                     l2749:
  1255                           
  1256                           ;main.c: 62: 
  1257  041E  3022               	movlw	low (STR_1| (0+32768))
  1258  041F  1283               	bcf	3,5	;RP0=0, select bank0
  1259  0420  1303               	bcf	3,6	;RP1=0, select bank0
  1260  0421  00BB               	movwf	clcd_print@str
  1261  0422  3086               	movlw	high (STR_1| (0+32768))
  1262  0423  00BC               	movwf	clcd_print@str+1
  1263  0424  30C0               	movlw	192
  1264  0425  00CC               	movwf	??_main
  1265  0426  084C               	movf	??_main,w
  1266  0427  00BD               	movwf	clcd_print@addr
  1267  0428  120A  158A  253E  120A  118A  	fcall	_clcd_print
  1268  042D                     l2751:
  1269                           
  1270                           ;main.c: 63:         }
  1271  042D  304D               	movlw	77
  1272  042E  1283               	bcf	3,5	;RP0=0, select bank0
  1273  042F  1303               	bcf	3,6	;RP1=0, select bank0
  1274  0430  00CE               	movwf	??_main+2
  1275  0431  3019               	movlw	25
  1276  0432  00CD               	movwf	??_main+1
  1277  0433  304F               	movlw	79
  1278  0434  00CC               	movwf	??_main
  1279  0435                     u2707:
  1280  0435  0BCC               	decfsz	??_main,f
  1281  0436  2C35               	goto	u2707
  1282  0437  0BCD               	decfsz	??_main+1,f
  1283  0438  2C35               	goto	u2707
  1284  0439  0BCE               	decfsz	??_main+2,f
  1285  043A  2C35               	goto	u2707
  1286  043B                     l2753:
  1287                           
  1288                           ;main.c: 64:         else if (key == 4 )
  1289  043B  120A  118A  27F1  120A  118A  	fcall	_clear_clcd
  1290                           
  1291                           ;main.c: 65:         {
  1292  0440  2D15               	goto	l2837
  1293  0441                     l2755:
  1294  0441  3002               	movlw	2
  1295  0442  064F               	xorwf	main@key,w
  1296  0443  1D03               	btfss	3,2
  1297  0444  2C46               	goto	u2561
  1298  0445  2C47               	goto	u2560
  1299  0446                     u2561:
  1300  0446  2C56               	goto	l2763
  1301  0447                     u2560:
  1302  0447                     l2757:
  1303  0447  3005               	movlw	5
  1304  0448  0633               	xorwf	_operation_mode,w
  1305  0449  1903               	btfsc	3,2
  1306  044A  2C4C               	goto	u2571
  1307  044B  2C4D               	goto	u2570
  1308  044C                     u2571:
  1309  044C  2C56               	goto	l2763
  1310  044D                     u2570:
  1311  044D                     l2759:
  1312                           
  1313                           ;main.c: 67:             if( operation_mode == 0x01);main.c: 68:             {
  1314  044D  3003               	movlw	3
  1315  044E  00CC               	movwf	??_main
  1316  044F  084C               	movf	??_main,w
  1317  0450  00B3               	movwf	_operation_mode
  1318                           
  1319                           ;main.c: 69: 
  1320  0451  3010               	movlw	16
  1321  0452  00CC               	movwf	??_main
  1322  0453  084C               	movf	??_main,w
  1323  0454  00B2               	movwf	_reset_flag
  1324  0455  2C3B               	goto	l2753
  1325  0456                     l2763:
  1326  0456  3003               	movlw	3
  1327  0457  064F               	xorwf	main@key,w
  1328  0458  1D03               	btfss	3,2
  1329  0459  2C5B               	goto	u2581
  1330  045A  2C5C               	goto	u2580
  1331  045B                     u2581:
  1332  045B  2C69               	goto	l2769
  1333  045C                     u2580:
  1334  045C                     l2765:
  1335                           
  1336                           ;main.c: 73:                RC2 = 1;;main.c: 74:                start_flag = 0XAF;
  1337  045C  3004               	movlw	4
  1338  045D  00CC               	movwf	??_main
  1339  045E  084C               	movf	??_main,w
  1340  045F  00B3               	movwf	_operation_mode
  1341                           
  1342                           ;main.c: 75:                clear_clcd();
  1343  0460  3009               	movlw	9
  1344  0461  00CC               	movwf	??_main
  1345  0462  084C               	movf	??_main,w
  1346  0463  00B1               	movwf	_convec_mode_op
  1347                           
  1348                           ;main.c: 76: 
  1349  0464  3011               	movlw	17
  1350  0465  00CC               	movwf	??_main
  1351  0466  084C               	movf	??_main,w
  1352  0467  00B2               	movwf	_reset_flag
  1353  0468  2C3B               	goto	l2753
  1354  0469                     l2769:
  1355  0469  3004               	movlw	4
  1356  046A  064F               	xorwf	main@key,w
  1357  046B  1D03               	btfss	3,2
  1358  046C  2C6E               	goto	u2591
  1359  046D  2C6F               	goto	u2590
  1360  046E                     u2591:
  1361  046E  2CB8               	goto	l2803
  1362  046F                     u2590:
  1363  046F                     l2771:
  1364                           
  1365                           ;main.c: 82:             else if ((operation_mode == 0x05) && (start_flag == 0XAF));main
      +                          .c: 84: 
  1366  046F  0333               	decf	_operation_mode,w
  1367  0470  1D03               	btfss	3,2
  1368  0471  2C73               	goto	u2601
  1369  0472  2C74               	goto	u2600
  1370  0473                     u2601:
  1371  0473  2C8B               	goto	l2787
  1372  0474                     u2600:
  1373  0474                     l2773:
  1374                           
  1375                           ;main.c: 85: ;main.c: 87: 
  1376  0474  01B5               	clrf	_min
  1377  0475                     l2775:
  1378                           
  1379                           ;main.c: 88:                 if (sec >= 60)
  1380  0475  301E               	movlw	30
  1381  0476  00CC               	movwf	??_main
  1382  0477  084C               	movf	??_main,w
  1383  0478  00B6               	movwf	_sec
  1384  0479                     l2777:
  1385                           
  1386                           ;main.c: 89:                 {
  1387  0479  1512               	bsf	18,2	;volatile
  1388  047A                     l2779:
  1389                           
  1390                           ;main.c: 90:                    min++;
  1391  047A  1507               	bsf	7,2	;volatile
  1392  047B                     l2781:
  1393                           
  1394                           ;main.c: 91:                    sec= sec - 60;
  1395  047B  30AF               	movlw	175
  1396  047C  00CC               	movwf	??_main
  1397  047D  084C               	movf	??_main,w
  1398  047E  00B0               	movwf	_start_flag
  1399  047F                     l2783:
  1400                           
  1401                           ;main.c: 92:                 }
  1402  047F  120A  118A  27F1  120A  118A  	fcall	_clear_clcd
  1403  0484                     l2785:
  1404                           
  1405                           ;main.c: 94: 
  1406  0484  3005               	movlw	5
  1407  0485  1283               	bcf	3,5	;RP0=0, select bank0
  1408  0486  1303               	bcf	3,6	;RP1=0, select bank0
  1409  0487  00CC               	movwf	??_main
  1410  0488  084C               	movf	??_main,w
  1411  0489  00B3               	movwf	_operation_mode
  1412                           
  1413                           ;main.c: 98:             {
  1414  048A  2D15               	goto	l2837
  1415  048B                     l2787:
  1416  048B  3005               	movlw	5
  1417  048C  0633               	xorwf	_operation_mode,w
  1418  048D  1D03               	btfss	3,2
  1419  048E  2C90               	goto	u2611
  1420  048F  2C91               	goto	u2610
  1421  0490                     u2611:
  1422  0490  2CAC               	goto	l2797
  1423  0491                     u2610:
  1424  0491                     l2789:
  1425  0491  30AF               	movlw	175
  1426  0492  0630               	xorwf	_start_flag,w
  1427  0493  1D03               	btfss	3,2
  1428  0494  2C96               	goto	u2621
  1429  0495  2C97               	goto	u2620
  1430  0496                     u2621:
  1431  0496  2CAC               	goto	l2797
  1432  0497                     u2620:
  1433  0497                     l2791:
  1434                           
  1435                           ;main.c: 100:                 operation_mode = 0X08;;main.c: 103: 
  1436  0497  0836               	movf	_sec,w
  1437  0498  3E1E               	addlw	30
  1438  0499  00CC               	movwf	??_main
  1439  049A  084C               	movf	??_main,w
  1440  049B  00B6               	movwf	_sec
  1441  049C                     l2793:
  1442                           
  1443                           ;main.c: 105:         {
  1444  049C  303C               	movlw	60
  1445  049D  0236               	subwf	_sec,w
  1446  049E  1C03               	skipc
  1447  049F  2CA1               	goto	u2631
  1448  04A0  2CA2               	goto	u2630
  1449  04A1                     u2631:
  1450  04A1  2C05               	goto	l73
  1451  04A2                     u2630:
  1452  04A2                     l2795:
  1453                           
  1454                           ;main.c: 106:             operation_mode = 0x07;;main.c: 107:         }
  1455  04A2  3001               	movlw	1
  1456  04A3  00CC               	movwf	??_main
  1457  04A4  084C               	movf	??_main,w
  1458  04A5  07B5               	addwf	_min,f
  1459                           
  1460                           ;main.c: 108:         else if(key == 6)
  1461  04A6  0836               	movf	_sec,w
  1462  04A7  3EC4               	addlw	196
  1463  04A8  00CC               	movwf	??_main
  1464  04A9  084C               	movf	??_main,w
  1465  04AA  00B6               	movwf	_sec
  1466  04AB  2D15               	goto	l2837
  1467  04AC                     l2797:
  1468  04AC  3007               	movlw	7
  1469  04AD  0633               	xorwf	_operation_mode,w
  1470  04AE  1D03               	btfss	3,2
  1471  04AF  2CB1               	goto	u2641
  1472  04B0  2CB2               	goto	u2640
  1473  04B1                     u2641:
  1474  04B1  2C05               	goto	l73
  1475  04B2                     u2640:
  1476  04B2                     l2799:
  1477                           
  1478                           ;main.c: 115:         {;main.c: 116:             case 0x01:
  1479  04B2  01B0               	clrf	_start_flag
  1480  04B3                     l2801:
  1481                           
  1482                           ;main.c: 117:                 cooking_mode_display();
  1483  04B3  3008               	movlw	8
  1484  04B4  00CC               	movwf	??_main
  1485  04B5  084C               	movf	??_main,w
  1486  04B6  00B3               	movwf	_operation_mode
  1487  04B7  2D15               	goto	l2837
  1488  04B8                     l2803:
  1489  04B8  3005               	movlw	5
  1490  04B9  064F               	xorwf	main@key,w
  1491  04BA  1D03               	btfss	3,2
  1492  04BB  2CBD               	goto	u2651
  1493  04BC  2CBE               	goto	u2650
  1494  04BD                     u2651:
  1495  04BD  2CC3               	goto	l2807
  1496  04BE                     u2650:
  1497  04BE                     l2805:
  1498                           
  1499                           ;main.c: 122:                 break;;main.c: 123: 
  1500  04BE  3007               	movlw	7
  1501  04BF  00CC               	movwf	??_main
  1502  04C0  084C               	movf	??_main,w
  1503  04C1  00B3               	movwf	_operation_mode
  1504                           
  1505                           ;main.c: 124:             case 0x03:
  1506  04C2  2D15               	goto	l2837
  1507  04C3                     l2807:
  1508  04C3  3006               	movlw	6
  1509  04C4  064F               	xorwf	main@key,w
  1510  04C5  1D03               	btfss	3,2
  1511  04C6  2CC8               	goto	u2661
  1512  04C7  2CC9               	goto	u2660
  1513  04C8                     u2661:
  1514  04C8  2C05               	goto	l73
  1515  04C9                     u2660:
  1516  04C9                     l2809:
  1517                           
  1518                           ;main.c: 126:                 break;;main.c: 127: 
  1519  04C9  3006               	movlw	6
  1520  04CA  00CC               	movwf	??_main
  1521  04CB  084C               	movf	??_main,w
  1522  04CC  00B3               	movwf	_operation_mode
  1523  04CD  2C3B               	goto	l2753
  1524  04CE                     l2813:
  1525                           
  1526                           ;main.c: 134:                       continue;
  1527  04CE  120A  118A  27B4  120A  118A  	fcall	_cooking_mode_display
  1528                           
  1529                           ;main.c: 135:                     }
  1530  04D3  2D39               	goto	l2839
  1531  04D4                     l2815:
  1532                           
  1533                           ;main.c: 138:                 {
  1534  04D4  084F               	movf	main@key,w
  1535  04D5  120A  118A  2023  120A  118A  	fcall	_set_time
  1536                           
  1537                           ;main.c: 139:                     set_time(key);
  1538  04DA  2D39               	goto	l2839
  1539  04DB                     l2817:
  1540                           
  1541                           ;main.c: 142: 
  1542  04DB  084F               	movf	main@key,w
  1543  04DC  120A  118A  2023  120A  118A  	fcall	_set_time
  1544                           
  1545                           ;main.c: 143:                 break;
  1546  04E1  2D39               	goto	l2839
  1547  04E2                     l2819:
  1548                           
  1549                           ;main.c: 146: 
  1550  04E2  3009               	movlw	9
  1551  04E3  0631               	xorwf	_convec_mode_op,w
  1552  04E4  1D03               	btfss	3,2
  1553  04E5  2CE7               	goto	u2671
  1554  04E6  2CE8               	goto	u2670
  1555  04E7                     u2671:
  1556  04E7  2CF7               	goto	l2827
  1557  04E8                     u2670:
  1558  04E8                     l2821:
  1559                           
  1560                           ;main.c: 147:             case 0x05:;main.c: 148:                 time_display_screen();
  1561  04E8  084F               	movf	main@key,w
  1562  04E9  120A  118A  21FD  120A  118A  	fcall	_set_temp
  1563  04EE                     l2823:
  1564                           
  1565                           ;main.c: 149:                 break;
  1566  04EE  300A               	movlw	10
  1567  04EF  1283               	bcf	3,5	;RP0=0, select bank0
  1568  04F0  1303               	bcf	3,6	;RP1=0, select bank0
  1569  04F1  0631               	xorwf	_convec_mode_op,w
  1570  04F2  1D03               	btfss	3,2
  1571  04F3  2CF5               	goto	u2681
  1572  04F4  2CF6               	goto	u2680
  1573  04F5                     u2681:
  1574  04F5  2D39               	goto	l2839
  1575  04F6                     u2680:
  1576  04F6  2BE7               	goto	l2733
  1577  04F7                     l2827:
  1578  04F7  300A               	movlw	10
  1579  04F8  0631               	xorwf	_convec_mode_op,w
  1580  04F9  1D03               	btfss	3,2
  1581  04FA  2CFC               	goto	u2691
  1582  04FB  2CFD               	goto	u2690
  1583  04FC                     u2691:
  1584  04FC  2D39               	goto	l2839
  1585  04FD                     u2690:
  1586  04FD                     l2829:
  1587                           
  1588                           ;main.c: 155:                 break;;main.c: 156:             case 0x07:
  1589  04FD  084F               	movf	main@key,w
  1590  04FE  120A  118A  2023  120A  118A  	fcall	_set_time
  1591  0503  2D39               	goto	l2839
  1592  0504                     l2831:
  1593                           
  1594                           ;main.c: 165: 
  1595  0504  120A  158A  26FB  120A  118A  	fcall	_time_display_screen
  1596                           
  1597                           ;main.c: 166:         }
  1598  0509  2D39               	goto	l2839
  1599  050A                     l104:	
  1600                           ;main.c: 168:         reset_flag = 0x0F;
  1601                           
  1602                           
  1603                           ;main.c: 169: 
  1604  050A  1112               	bcf	18,2	;volatile
  1605                           
  1606                           ;main.c: 170:      }
  1607  050B  1107               	bcf	7,2	;volatile
  1608                           
  1609                           ;main.c: 171: }
  1610  050C  01B3               	clrf	_operation_mode
  1611  050D  0AB3               	incf	_operation_mode,f
  1612                           
  1613                           ;main.c: 172: 
  1614  050E  2D39               	goto	l2839
  1615  050F                     l105:	
  1616                           ;main.c: 173: void clear_clcd(void)
  1617                           
  1618                           
  1619                           ;main.c: 174: {
  1620  050F  1112               	bcf	18,2	;volatile
  1621                           
  1622                           ;main.c: 175:     clcd_write(0x01, 0);
  1623  0510  1107               	bcf	7,2	;volatile
  1624                           
  1625                           ;main.c: 176:     _delay((unsigned long)((100)*(20000000/4000000.0)));
  1626  0511  2D39               	goto	l2839
  1627  0512                     l106:	
  1628                           ;main.c: 177: }
  1629                           
  1630                           
  1631                           ;main.c: 178: void power_on_screen(void)
  1632  0512  1512               	bsf	18,2	;volatile
  1633                           
  1634                           ;main.c: 179: {
  1635  0513  1507               	bsf	7,2	;volatile
  1636  0514  2D04               	goto	l2831
  1637  0515                     l2837:
  1638  0515  1283               	bcf	3,5	;RP0=0, select bank0
  1639  0516  1303               	bcf	3,6	;RP1=0, select bank0
  1640  0517  0833               	movf	_operation_mode,w
  1641  0518  00CC               	movwf	??_main
  1642  0519  01CD               	clrf	??_main+1
  1643                           
  1644                           ; Switch on 2 bytes has been partitioned into a top level switch of size 1, and 1 sub-sw
      +                          itches
  1645                           ; Switch size 1, requested type "simple"
  1646                           ; Number of cases is 1, Range of values is 0 to 0
  1647                           ; switch strategies available:
  1648                           ; Name         Instructions Cycles
  1649                           ; simple_byte            4     3 (average)
  1650                           ; direct_byte           11     8 (fixed)
  1651                           ; jumptable            260     6 (fixed)
  1652                           ;	Chosen strategy is simple_byte
  1653  051A  084D               	movf	??_main+1,w
  1654  051B  3A00               	xorlw	0	; case 0
  1655  051C  1903               	skipnz
  1656  051D  2D1F               	goto	l2897
  1657  051E  2D39               	goto	l2839
  1658  051F                     l2897:
  1659                           
  1660                           ; Switch size 1, requested type "simple"
  1661                           ; Number of cases is 8, Range of values is 1 to 8
  1662                           ; switch strategies available:
  1663                           ; Name         Instructions Cycles
  1664                           ; simple_byte           25    13 (average)
  1665                           ; direct_byte           35    11 (fixed)
  1666                           ; jumptable            263     9 (fixed)
  1667                           ;	Chosen strategy is simple_byte
  1668  051F  084C               	movf	??_main,w
  1669  0520  3A01               	xorlw	1	; case 1
  1670  0521  1903               	skipnz
  1671  0522  2CCE               	goto	l2813
  1672  0523  3A03               	xorlw	3	; case 2
  1673  0524  1903               	skipnz
  1674  0525  2CD4               	goto	l2815
  1675  0526  3A01               	xorlw	1	; case 3
  1676  0527  1903               	skipnz
  1677  0528  2CDB               	goto	l2817
  1678  0529  3A07               	xorlw	7	; case 4
  1679  052A  1903               	skipnz
  1680  052B  2CE2               	goto	l2819
  1681  052C  3A01               	xorlw	1	; case 5
  1682  052D  1903               	skipnz
  1683  052E  2D04               	goto	l2831
  1684  052F  3A03               	xorlw	3	; case 6
  1685  0530  1903               	skipnz
  1686  0531  2D0A               	goto	l104
  1687  0532  3A01               	xorlw	1	; case 7
  1688  0533  1903               	skipnz
  1689  0534  2D0F               	goto	l105
  1690  0535  3A0F               	xorlw	15	; case 8
  1691  0536  1903               	skipnz
  1692  0537  2D12               	goto	l106
  1693  0538  2D39               	goto	l2839
  1694  0539                     l2839:
  1695                           
  1696                           ;main.c: 185:     clcd_print("  Powering On   ", (0xC0 + 0));
  1697  0539  300F               	movlw	15
  1698  053A  1283               	bcf	3,5	;RP0=0, select bank0
  1699  053B  1303               	bcf	3,6	;RP1=0, select bank0
  1700  053C  00CC               	movwf	??_main
  1701  053D  084C               	movf	??_main,w
  1702  053E  00B2               	movwf	_reset_flag
  1703  053F  2BE7               	goto	l2733
  1704  0540  120A  118A  280C   	ljmp	start
  1705  0543                     __end_of_main:
  1706                           
  1707                           	psect	text1
  1708  0EFB                     __ptext1:	
  1709 ;; *************** function _time_display_screen *****************
  1710 ;; Defined at:
  1711 ;;		line 329 in file "main.c"
  1712 ;; Parameters:    Size  Location     Type
  1713 ;;		None
  1714 ;; Auto vars:     Size  Location     Type
  1715 ;;		None
  1716 ;; Return value:  Size  Location     Type
  1717 ;;                  1    wreg      void 
  1718 ;; Registers used:
  1719 ;;		wreg, fsr0l, fsr0h, status,2, status,0, btemp+1, pclath, cstack
  1720 ;; Tracked objects:
  1721 ;;		On entry : 0/0
  1722 ;;		On exit  : 0/0
  1723 ;;		Unchanged: 0/0
  1724 ;; Data sizes:     COMMON   BANK0   BANK1   BANK3   BANK2
  1725 ;;      Params:         0       0       0       0       0
  1726 ;;      Locals:         0       0       0       0       0
  1727 ;;      Temps:          0       3       0       0       0
  1728 ;;      Totals:         0       3       0       0       0
  1729 ;;Total ram usage:        3 bytes
  1730 ;; Hardware stack levels used: 1
  1731 ;; Hardware stack levels required when called: 4
  1732 ;; This function calls:
  1733 ;;		___awdiv
  1734 ;;		___awmod
  1735 ;;		_clcd_print
  1736 ;;		_clcd_putch
  1737 ;;		_clear_clcd
  1738 ;;		_door_status_check
  1739 ;; This function is called by:
  1740 ;;		_main
  1741 ;; This function uses a non-reentrant model
  1742 ;;
  1743                           
  1744                           
  1745                           ;psect for function _time_display_screen
  1746  0EFB                     _time_display_screen:
  1747  0EFB                     l2685:	
  1748                           ;incstack = 0
  1749                           ; Regs used in _time_display_screen: [wreg-fsr0h+status,2+status,0+btemp+1+pclath+cstack
      +                          ]
  1750                           
  1751                           
  1752                           ;main.c: 331:   {
  1753  0EFB  120A  118A  25AC  120A  158A  	fcall	_door_status_check
  1754                           
  1755                           ;main.c: 332:       clear_clcd();
  1756  0F00  30C7               	movlw	low (STR_15| (0+32768))
  1757  0F01  1283               	bcf	3,5	;RP0=0, select bank0
  1758  0F02  1303               	bcf	3,6	;RP1=0, select bank0
  1759  0F03  00BB               	movwf	clcd_print@str
  1760  0F04  3086               	movlw	high (STR_15| (0+32768))
  1761  0F05  00BC               	movwf	clcd_print@str+1
  1762  0F06  3080               	movlw	128
  1763  0F07  00C7               	movwf	??_time_display_screen
  1764  0F08  0847               	movf	??_time_display_screen,w
  1765  0F09  00BD               	movwf	clcd_print@addr
  1766  0F0A  120A  158A  253E  120A  158A  	fcall	_clcd_print
  1767  0F0F                     l2687:
  1768                           
  1769                           ;main.c: 334:       TMR2ON = 0;
  1770  0F0F  3089               	movlw	137
  1771  0F10  1283               	bcf	3,5	;RP0=0, select bank0
  1772  0F11  1303               	bcf	3,6	;RP1=0, select bank0
  1773  0F12  00C7               	movwf	??_time_display_screen
  1774  0F13  0847               	movf	??_time_display_screen,w
  1775  0F14  00C5               	movwf	clcd_putch@addr
  1776  0F15  300A               	movlw	10
  1777  0F16  00F3               	movwf	___awdiv@divisor
  1778  0F17  3000               	movlw	0
  1779  0F18  00F4               	movwf	___awdiv@divisor+1
  1780  0F19  0835               	movf	_min,w
  1781  0F1A  00C8               	movwf	??_time_display_screen+1
  1782  0F1B  01C9               	clrf	??_time_display_screen+2
  1783  0F1C  0848               	movf	??_time_display_screen+1,w
  1784  0F1D  00F5               	movwf	___awdiv@dividend
  1785  0F1E  0849               	movf	??_time_display_screen+2,w
  1786  0F1F  00F6               	movwf	___awdiv@dividend+1
  1787  0F20  120A  118A  2543  120A  158A  	fcall	___awdiv
  1788  0F25  0873               	movf	?___awdiv,w
  1789  0F26  3E30               	addlw	48
  1790  0F27  120A  158A  24E3  120A  158A  	fcall	_clcd_putch
  1791  0F2C                     l2689:
  1792                           
  1793                           ;main.c: 335:       RC2 = 0;
  1794  0F2C  308A               	movlw	138
  1795  0F2D  1283               	bcf	3,5	;RP0=0, select bank0
  1796  0F2E  1303               	bcf	3,6	;RP1=0, select bank0
  1797  0F2F  00C7               	movwf	??_time_display_screen
  1798  0F30  0847               	movf	??_time_display_screen,w
  1799  0F31  00C5               	movwf	clcd_putch@addr
  1800  0F32  300A               	movlw	10
  1801  0F33  00BF               	movwf	___awmod@divisor
  1802  0F34  3000               	movlw	0
  1803  0F35  00C0               	movwf	___awmod@divisor+1
  1804  0F36  0835               	movf	_min,w
  1805  0F37  00C8               	movwf	??_time_display_screen+1
  1806  0F38  01C9               	clrf	??_time_display_screen+2
  1807  0F39  0848               	movf	??_time_display_screen+1,w
  1808  0F3A  00C1               	movwf	___awmod@dividend
  1809  0F3B  0849               	movf	??_time_display_screen+2,w
  1810  0F3C  00C2               	movwf	___awmod@dividend+1
  1811  0F3D  120A  158A  25DE  120A  158A  	fcall	___awmod
  1812  0F42  1283               	bcf	3,5	;RP0=0, select bank0
  1813  0F43  1303               	bcf	3,6	;RP1=0, select bank0
  1814  0F44  083F               	movf	?___awmod,w
  1815  0F45  3E30               	addlw	48
  1816  0F46  120A  158A  24E3  120A  158A  	fcall	_clcd_putch
  1817  0F4B                     l2691:
  1818                           
  1819                           ;main.c: 337:       _delay((unsigned long)((3000)*(20000000/4000.0)));
  1820  0F4B  308B               	movlw	139
  1821  0F4C  1283               	bcf	3,5	;RP0=0, select bank0
  1822  0F4D  1303               	bcf	3,6	;RP1=0, select bank0
  1823  0F4E  00C7               	movwf	??_time_display_screen
  1824  0F4F  0847               	movf	??_time_display_screen,w
  1825  0F50  00C5               	movwf	clcd_putch@addr
  1826  0F51  303A               	movlw	58
  1827  0F52  120A  158A  24E3  120A  158A  	fcall	_clcd_putch
  1828  0F57                     l2693:
  1829                           
  1830                           ;main.c: 339:       clear_clcd();
  1831  0F57  308C               	movlw	140
  1832  0F58  1283               	bcf	3,5	;RP0=0, select bank0
  1833  0F59  1303               	bcf	3,6	;RP1=0, select bank0
  1834  0F5A  00C7               	movwf	??_time_display_screen
  1835  0F5B  0847               	movf	??_time_display_screen,w
  1836  0F5C  00C5               	movwf	clcd_putch@addr
  1837  0F5D  300A               	movlw	10
  1838  0F5E  00F3               	movwf	___awdiv@divisor
  1839  0F5F  3000               	movlw	0
  1840  0F60  00F4               	movwf	___awdiv@divisor+1
  1841  0F61  0836               	movf	_sec,w
  1842  0F62  00C8               	movwf	??_time_display_screen+1
  1843  0F63  01C9               	clrf	??_time_display_screen+2
  1844  0F64  0848               	movf	??_time_display_screen+1,w
  1845  0F65  00F5               	movwf	___awdiv@dividend
  1846  0F66  0849               	movf	??_time_display_screen+2,w
  1847  0F67  00F6               	movwf	___awdiv@dividend+1
  1848  0F68  120A  118A  2543  120A  158A  	fcall	___awdiv
  1849  0F6D  0873               	movf	?___awdiv,w
  1850  0F6E  3E30               	addlw	48
  1851  0F6F  120A  158A  24E3  120A  158A  	fcall	_clcd_putch
  1852  0F74                     l2695:
  1853                           
  1854                           ;main.c: 340:       operation_mode = 0x01;
  1855  0F74  308D               	movlw	141
  1856  0F75  1283               	bcf	3,5	;RP0=0, select bank0
  1857  0F76  1303               	bcf	3,6	;RP1=0, select bank0
  1858  0F77  00C7               	movwf	??_time_display_screen
  1859  0F78  0847               	movf	??_time_display_screen,w
  1860  0F79  00C5               	movwf	clcd_putch@addr
  1861  0F7A  300A               	movlw	10
  1862  0F7B  00BF               	movwf	___awmod@divisor
  1863  0F7C  3000               	movlw	0
  1864  0F7D  00C0               	movwf	___awmod@divisor+1
  1865  0F7E  0836               	movf	_sec,w
  1866  0F7F  00C8               	movwf	??_time_display_screen+1
  1867  0F80  01C9               	clrf	??_time_display_screen+2
  1868  0F81  0848               	movf	??_time_display_screen+1,w
  1869  0F82  00C1               	movwf	___awmod@dividend
  1870  0F83  0849               	movf	??_time_display_screen+2,w
  1871  0F84  00C2               	movwf	___awmod@dividend+1
  1872  0F85  120A  158A  25DE  120A  158A  	fcall	___awmod
  1873  0F8A  1283               	bcf	3,5	;RP0=0, select bank0
  1874  0F8B  1303               	bcf	3,6	;RP1=0, select bank0
  1875  0F8C  083F               	movf	?___awmod,w
  1876  0F8D  3E30               	addlw	48
  1877  0F8E  120A  158A  24E3  120A  158A  	fcall	_clcd_putch
  1878  0F93                     l2697:
  1879                           
  1880                           ;main.c: 343: }
  1881  0F93  3077               	movlw	low (STR_16| (0+32768))
  1882  0F94  1283               	bcf	3,5	;RP0=0, select bank0
  1883  0F95  1303               	bcf	3,6	;RP1=0, select bank0
  1884  0F96  00BB               	movwf	clcd_print@str
  1885  0F97  3086               	movlw	high (STR_16| (0+32768))
  1886  0F98  00BC               	movwf	clcd_print@str+1
  1887  0F99  30C0               	movlw	192
  1888  0F9A  00C7               	movwf	??_time_display_screen
  1889  0F9B  0847               	movf	??_time_display_screen,w
  1890  0F9C  00BD               	movwf	clcd_print@addr
  1891  0F9D  120A  158A  253E  120A  158A  	fcall	_clcd_print
  1892  0FA2                     l2699:
  1893                           
  1894                           ;main.c: 344: void set_temp(unsigned char key)
  1895  0FA2  30D0               	movlw	low (STR_17| (0+32768))
  1896  0FA3  1283               	bcf	3,5	;RP0=0, select bank0
  1897  0FA4  1303               	bcf	3,6	;RP1=0, select bank0
  1898  0FA5  00BB               	movwf	clcd_print@str
  1899  0FA6  3086               	movlw	high (STR_17| (0+32768))
  1900  0FA7  00BC               	movwf	clcd_print@str+1
  1901  0FA8  3090               	movlw	144
  1902  0FA9  00C7               	movwf	??_time_display_screen
  1903  0FAA  0847               	movf	??_time_display_screen,w
  1904  0FAB  00BD               	movwf	clcd_print@addr
  1905  0FAC  120A  158A  253E  120A  158A  	fcall	_clcd_print
  1906  0FB1                     l2701:
  1907                           
  1908                           ;main.c: 345: {
  1909  0FB1  30F1               	movlw	low (STR_18| (0+32768))
  1910  0FB2  1283               	bcf	3,5	;RP0=0, select bank0
  1911  0FB3  1303               	bcf	3,6	;RP1=0, select bank0
  1912  0FB4  00BB               	movwf	clcd_print@str
  1913  0FB5  3086               	movlw	high (STR_18| (0+32768))
  1914  0FB6  00BC               	movwf	clcd_print@str+1
  1915  0FB7  30D0               	movlw	208
  1916  0FB8  00C7               	movwf	??_time_display_screen
  1917  0FB9  0847               	movf	??_time_display_screen,w
  1918  0FBA  00BD               	movwf	clcd_print@addr
  1919  0FBB  120A  158A  253E  120A  158A  	fcall	_clcd_print
  1920  0FC0                     l2703:
  1921                           
  1922                           ;main.c: 347:     static char temp_arr[4];
  1923  0FC0  1283               	bcf	3,5	;RP0=0, select bank0
  1924  0FC1  1303               	bcf	3,6	;RP1=0, select bank0
  1925  0FC2  0836               	movf	_sec,w
  1926  0FC3  1D03               	btfss	3,2
  1927  0FC4  2FC6               	goto	u2491
  1928  0FC5  2FC7               	goto	u2490
  1929  0FC6                     u2491:
  1930  0FC6  2FFF               	goto	l159
  1931  0FC7                     u2490:
  1932  0FC7                     l2705:
  1933  0FC7  0835               	movf	_min,w
  1934  0FC8  1D03               	btfss	3,2
  1935  0FC9  2FCB               	goto	u2501
  1936  0FCA  2FCC               	goto	u2500
  1937  0FCB                     u2501:
  1938  0FCB  2FFF               	goto	l159
  1939  0FCC                     u2500:
  1940  0FCC                     l2707:
  1941                           
  1942                           ;main.c: 348:     if( reset_flag == 0x11);main.c: 349:     {
  1943  0FCC  120A  118A  27F1  120A  158A  	fcall	_clear_clcd
  1944  0FD1                     l2709:
  1945                           
  1946                           ;main.c: 350:         key = 0xFF;
  1947  0FD1  30BD               	movlw	low (STR_19| (0+32768))
  1948  0FD2  1283               	bcf	3,5	;RP0=0, select bank0
  1949  0FD3  1303               	bcf	3,6	;RP1=0, select bank0
  1950  0FD4  00BB               	movwf	clcd_print@str
  1951  0FD5  3086               	movlw	high (STR_19| (0+32768))
  1952  0FD6  00BC               	movwf	clcd_print@str+1
  1953  0FD7  30C0               	movlw	192
  1954  0FD8  00C7               	movwf	??_time_display_screen
  1955  0FD9  0847               	movf	??_time_display_screen,w
  1956  0FDA  00BD               	movwf	clcd_print@addr
  1957  0FDB  120A  158A  253E  120A  158A  	fcall	_clcd_print
  1958  0FE0                     l2711:
  1959                           
  1960                           ;main.c: 351:         temp = 0;
  1961  0FE0  1283               	bcf	3,5	;RP0=0, select bank0
  1962  0FE1  1303               	bcf	3,6	;RP1=0, select bank0
  1963  0FE2  1112               	bcf	18,2	;volatile
  1964  0FE3                     l2713:
  1965                           
  1966                           ;main.c: 352:         wait = 15;
  1967  0FE3  1107               	bcf	7,2	;volatile
  1968  0FE4                     l2715:
  1969                           
  1970                           ;main.c: 353:         blink = 0;
  1971  0FE4  1487               	bsf	7,1	;volatile
  1972  0FE5                     l2717:
  1973                           
  1974                           ;main.c: 354:         key_count = 0;
  1975  0FE5  304D               	movlw	77
  1976  0FE6  1283               	bcf	3,5	;RP0=0, select bank0
  1977  0FE7  1303               	bcf	3,6	;RP1=0, select bank0
  1978  0FE8  00C9               	movwf	??_time_display_screen+2
  1979  0FE9  3019               	movlw	25
  1980  0FEA  00C8               	movwf	??_time_display_screen+1
  1981  0FEB  304F               	movlw	79
  1982  0FEC  00C7               	movwf	??_time_display_screen
  1983  0FED                     u2717:
  1984  0FED  0BC7               	decfsz	??_time_display_screen,f
  1985  0FEE  2FED               	goto	u2717
  1986  0FEF  0BC8               	decfsz	??_time_display_screen+1,f
  1987  0FF0  2FED               	goto	u2717
  1988  0FF1  0BC9               	decfsz	??_time_display_screen+2,f
  1989  0FF2  2FED               	goto	u2717
  1990  0FF3                     l2719:
  1991                           
  1992                           ;main.c: 355:         clcd_print(" SET TEMP ( C)",(0x80 + 0));
  1993  0FF3  1283               	bcf	3,5	;RP0=0, select bank0
  1994  0FF4  1303               	bcf	3,6	;RP1=0, select bank0
  1995  0FF5  1087               	bcf	7,1	;volatile
  1996  0FF6                     l2721:
  1997                           
  1998                           ;main.c: 356:         clcd_putch(0XDF,(0x80 + 11));
  1999  0FF6  120A  118A  27F1  120A  158A  	fcall	_clear_clcd
  2000  0FFB                     l2723:
  2001                           
  2002                           ;main.c: 357: 
  2003  0FFB  1283               	bcf	3,5	;RP0=0, select bank0
  2004  0FFC  1303               	bcf	3,6	;RP1=0, select bank0
  2005  0FFD  01B3               	clrf	_operation_mode
  2006  0FFE  0AB3               	incf	_operation_mode,f
  2007  0FFF                     l159:
  2008  0FFF  0008               	return
  2009  1000                     __end_of_time_display_screen:
  2010                           
  2011                           	psect	text2
  2012  05AC                     __ptext2:	
  2013 ;; *************** function _door_status_check *****************
  2014 ;; Defined at:
  2015 ;;		line 304 in file "main.c"
  2016 ;; Parameters:    Size  Location     Type
  2017 ;;		None
  2018 ;; Auto vars:     Size  Location     Type
  2019 ;;		None
  2020 ;; Return value:  Size  Location     Type
  2021 ;;                  1    wreg      void 
  2022 ;; Registers used:
  2023 ;;		wreg, fsr0l, fsr0h, status,2, status,0, btemp+1, pclath, cstack
  2024 ;; Tracked objects:
  2025 ;;		On entry : 0/0
  2026 ;;		On exit  : 0/0
  2027 ;;		Unchanged: 0/0
  2028 ;; Data sizes:     COMMON   BANK0   BANK1   BANK3   BANK2
  2029 ;;      Params:         0       0       0       0       0
  2030 ;;      Locals:         0       0       0       0       0
  2031 ;;      Temps:          1       0       0       0       0
  2032 ;;      Totals:         1       0       0       0       0
  2033 ;;Total ram usage:        1 bytes
  2034 ;; Hardware stack levels used: 1
  2035 ;; Hardware stack levels required when called: 3
  2036 ;; This function calls:
  2037 ;;		_clcd_print
  2038 ;;		_clear_clcd
  2039 ;; This function is called by:
  2040 ;;		_time_display_screen
  2041 ;; This function uses a non-reentrant model
  2042 ;;
  2043                           
  2044                           
  2045                           ;psect for function _door_status_check
  2046  05AC                     _door_status_check:
  2047  05AC                     l2437:	
  2048                           ;incstack = 0
  2049                           ; Regs used in _door_status_check: [wreg-fsr0h+status,2+status,0+btemp+1+pclath+cstack]
  2050                           
  2051                           
  2052                           ;main.c: 308:         clear_clcd();
  2053  05AC  1283               	bcf	3,5	;RP0=0, select bank0
  2054  05AD  1303               	bcf	3,6	;RP1=0, select bank0
  2055  05AE  1986               	btfsc	6,3	;volatile
  2056  05AF  2DB1               	goto	u2081
  2057  05B0  2DB2               	goto	u2080
  2058  05B1                     u2081:
  2059  05B1  2DE6               	goto	l155
  2060  05B2                     u2080:
  2061  05B2                     l2439:
  2062                           
  2063                           ;main.c: 309: ;main.c: 311: }
  2064  05B2  1112               	bcf	18,2	;volatile
  2065                           
  2066                           ;main.c: 312: void time_display_screen(void)
  2067  05B3  1107               	bcf	7,2	;volatile
  2068                           
  2069                           ;main.c: 313: {
  2070  05B4  1487               	bsf	7,1	;volatile
  2071  05B5                     l2441:
  2072                           
  2073                           ;main.c: 314:   door_status_check();
  2074  05B5  120A  118A  27F1  120A  118A  	fcall	_clear_clcd
  2075  05BA                     l2443:
  2076                           
  2077                           ;main.c: 315:   clcd_print(" TIME = ",(0x80 + 0));
  2078  05BA  3055               	movlw	low (STR_13| (0+32768))
  2079  05BB  1283               	bcf	3,5	;RP0=0, select bank0
  2080  05BC  1303               	bcf	3,6	;RP1=0, select bank0
  2081  05BD  00BB               	movwf	clcd_print@str
  2082  05BE  3086               	movlw	high (STR_13| (0+32768))
  2083  05BF  00BC               	movwf	clcd_print@str+1
  2084  05C0  30C0               	movlw	192
  2085  05C1  00F8               	movwf	??_door_status_check
  2086  05C2  0878               	movf	??_door_status_check,w
  2087  05C3  00BD               	movwf	clcd_print@addr
  2088  05C4  120A  158A  253E  120A  118A  	fcall	_clcd_print
  2089  05C9                     l2445:
  2090                           
  2091                           ;main.c: 316: 
  2092  05C9  3087               	movlw	low (STR_14| (0+32768))
  2093  05CA  1283               	bcf	3,5	;RP0=0, select bank0
  2094  05CB  1303               	bcf	3,6	;RP1=0, select bank0
  2095  05CC  00BB               	movwf	clcd_print@str
  2096  05CD  3086               	movlw	high (STR_14| (0+32768))
  2097  05CE  00BC               	movwf	clcd_print@str+1
  2098  05CF  3090               	movlw	144
  2099  05D0  00F8               	movwf	??_door_status_check
  2100  05D1  0878               	movf	??_door_status_check,w
  2101  05D2  00BD               	movwf	clcd_print@addr
  2102  05D3  120A  158A  253E  120A  118A  	fcall	_clcd_print
  2103  05D8                     l152:	
  2104                           ;main.c: 319: ;main.c: 321: 
  2105                           
  2106                           
  2107                           ;main.c: 318:   clcd_putch(min%10 + '0', (0x80 + 10));
  2108  05D8  1283               	bcf	3,5	;RP0=0, select bank0
  2109  05D9  1303               	bcf	3,6	;RP1=0, select bank0
  2110  05DA  1D86               	btfss	6,3	;volatile
  2111  05DB  2DDD               	goto	u2091
  2112  05DC  2DDE               	goto	u2090
  2113  05DD                     u2091:
  2114  05DD  2DD8               	goto	l152
  2115  05DE                     u2090:
  2116  05DE                     l154:
  2117                           
  2118                           ;main.c: 322:   clcd_putch(sec/10 + '0', (0x80 + 12));
  2119  05DE  1087               	bcf	7,1	;volatile
  2120                           
  2121                           ;main.c: 323:   clcd_putch(sec%10 + '0', (0x80 + 13));
  2122  05DF  1112               	bcf	18,2	;volatile
  2123                           
  2124                           ;main.c: 324: 
  2125  05E0  1507               	bsf	7,2	;volatile
  2126  05E1                     l2447:
  2127                           
  2128                           ;main.c: 325: 
  2129  05E1  120A  118A  27F1  120A  118A  	fcall	_clear_clcd
  2130  05E6                     l155:
  2131  05E6  0008               	return
  2132  05E7                     __end_of_door_status_check:
  2133                           
  2134                           	psect	text3
  2135  0023                     __ptext3:	
  2136 ;; *************** function _set_time *****************
  2137 ;; Defined at:
  2138 ;;		line 221 in file "main.c"
  2139 ;; Parameters:    Size  Location     Type
  2140 ;;  key             1    wreg     unsigned char 
  2141 ;; Auto vars:     Size  Location     Type
  2142 ;;  key             1   15[BANK0 ] unsigned char 
  2143 ;; Return value:  Size  Location     Type
  2144 ;;                  1    wreg      void 
  2145 ;; Registers used:
  2146 ;;		wreg, fsr0l, fsr0h, status,2, status,0, btemp+1, pclath, cstack
  2147 ;; Tracked objects:
  2148 ;;		On entry : 0/0
  2149 ;;		On exit  : 0/0
  2150 ;;		Unchanged: 0/0
  2151 ;; Data sizes:     COMMON   BANK0   BANK1   BANK3   BANK2
  2152 ;;      Params:         0       0       0       0       0
  2153 ;;      Locals:         0       1       0       0       0
  2154 ;;      Temps:          0       3       0       0       0
  2155 ;;      Totals:         0       4       0       0       0
  2156 ;;Total ram usage:        4 bytes
  2157 ;; Hardware stack levels used: 1
  2158 ;; Hardware stack levels required when called: 3
  2159 ;; This function calls:
  2160 ;;		___awdiv
  2161 ;;		___awmod
  2162 ;;		___bmul
  2163 ;;		_clcd_print
  2164 ;;		_clcd_putch
  2165 ;;		_clear_clcd
  2166 ;; This function is called by:
  2167 ;;		_main
  2168 ;; This function uses a non-reentrant model
  2169 ;;
  2170                           
  2171                           
  2172                           ;psect for function _set_time
  2173  0023                     _set_time:
  2174                           
  2175                           ;incstack = 0
  2176                           ; Regs used in _set_time: [wreg-fsr0h+status,2+status,0+btemp+1+pclath+cstack]
  2177                           ;set_time@key stored from wreg
  2178  0023  1283               	bcf	3,5	;RP0=0, select bank0
  2179  0024  1303               	bcf	3,6	;RP1=0, select bank0
  2180  0025  00CA               	movwf	set_time@key
  2181  0026                     l2517:
  2182                           
  2183                           ;main.c: 221:     };main.c: 222: ;main.c: 224:     {;main.c: 225:         key_count++;
  2184  0026  3010               	movlw	16
  2185  0027  0632               	xorwf	_reset_flag,w
  2186  0028  1D03               	btfss	3,2
  2187  0029  282B               	goto	u2211
  2188  002A  282C               	goto	u2210
  2189  002B                     u2211:
  2190  002B  2873               	goto	l2541
  2191  002C                     u2210:
  2192  002C                     l2519:
  2193                           
  2194                           ;main.c: 226:         if(key_count <= 2 );main.c: 227:         {
  2195  002C  300F               	movlw	15
  2196  002D  00AE               	movwf	set_time@wait
  2197  002E  3000               	movlw	0
  2198  002F  00AF               	movwf	set_time@wait+1
  2199  0030                     l2521:
  2200                           
  2201                           ;main.c: 228:             sec = sec * 10 + key;
  2202  0030  01AC               	clrf	set_time@blink
  2203  0031  01AD               	clrf	set_time@blink+1
  2204  0032                     l2523:
  2205                           
  2206                           ;main.c: 229:             blink_pos = 0;
  2207  0032  01AA               	clrf	set_time@key_count
  2208  0033  01AB               	clrf	set_time@key_count+1
  2209  0034                     l2525:
  2210                           
  2211                           ;main.c: 230:         }
  2212  0034  01B5               	clrf	_min
  2213  0035                     l2527:
  2214                           
  2215                           ;main.c: 231:         else if(key_count > 2 && key_count <= 4)
  2216  0035  01B6               	clrf	_sec
  2217  0036                     l2529:
  2218                           
  2219                           ;main.c: 232:         {
  2220  0036  01A8               	clrf	set_time@blink_pos
  2221  0037  01A9               	clrf	set_time@blink_pos+1
  2222  0038                     l2531:
  2223                           
  2224                           ;main.c: 233:             min = min * 10 + key;
  2225  0038  30FF               	movlw	255
  2226  0039  00C7               	movwf	??_set_time
  2227  003A  0847               	movf	??_set_time,w
  2228  003B  00CA               	movwf	set_time@key
  2229  003C                     l2533:
  2230                           
  2231                           ;main.c: 234:             blink_pos = 1;
  2232  003C  3044               	movlw	low (STR_8| (0+32768))
  2233  003D  00BB               	movwf	clcd_print@str
  2234  003E  3086               	movlw	high (STR_8| (0+32768))
  2235  003F  00BC               	movwf	clcd_print@str+1
  2236  0040  3080               	movlw	128
  2237  0041  00C7               	movwf	??_set_time
  2238  0042  0847               	movf	??_set_time,w
  2239  0043  00BD               	movwf	clcd_print@addr
  2240  0044  120A  158A  253E  120A  118A  	fcall	_clcd_print
  2241  0049                     l2535:
  2242                           
  2243                           ;main.c: 235:         }
  2244  0049  3001               	movlw	low (STR_9| (0+32768))
  2245  004A  1283               	bcf	3,5	;RP0=0, select bank0
  2246  004B  1303               	bcf	3,6	;RP1=0, select bank0
  2247  004C  00BB               	movwf	clcd_print@str
  2248  004D  3087               	movlw	high (STR_9| (0+32768))
  2249  004E  00BC               	movwf	clcd_print@str+1
  2250  004F  30C0               	movlw	192
  2251  0050  00C7               	movwf	??_set_time
  2252  0051  0847               	movf	??_set_time,w
  2253  0052  00BD               	movwf	clcd_print@addr
  2254  0053  120A  158A  253E  120A  118A  	fcall	_clcd_print
  2255  0058                     l2537:
  2256                           
  2257                           ;main.c: 236: 
  2258  0058  30C8               	movlw	200
  2259  0059  1283               	bcf	3,5	;RP0=0, select bank0
  2260  005A  1303               	bcf	3,6	;RP1=0, select bank0
  2261  005B  00C7               	movwf	??_set_time
  2262  005C  0847               	movf	??_set_time,w
  2263  005D  00C5               	movwf	clcd_putch@addr
  2264  005E  303A               	movlw	58
  2265  005F  120A  158A  24E3  120A  118A  	fcall	_clcd_putch
  2266  0064                     l2539:
  2267                           
  2268                           ;main.c: 237:     }
  2269  0064  3066               	movlw	low (STR_10| (0+32768))
  2270  0065  1283               	bcf	3,5	;RP0=0, select bank0
  2271  0066  1303               	bcf	3,6	;RP1=0, select bank0
  2272  0067  00BB               	movwf	clcd_print@str
  2273  0068  3086               	movlw	high (STR_10| (0+32768))
  2274  0069  00BC               	movwf	clcd_print@str+1
  2275  006A  30D0               	movlw	208
  2276  006B  00C7               	movwf	??_set_time
  2277  006C  0847               	movf	??_set_time,w
  2278  006D  00BD               	movwf	clcd_print@addr
  2279  006E  120A  158A  253E  120A  118A  	fcall	_clcd_print
  2280  0073                     l2541:
  2281                           
  2282                           ;main.c: 240: 
  2283  0073  302A               	movlw	42
  2284  0074  1283               	bcf	3,5	;RP0=0, select bank0
  2285  0075  1303               	bcf	3,6	;RP1=0, select bank0
  2286  0076  064A               	xorwf	set_time@key,w
  2287  0077  1903               	btfsc	3,2
  2288  0078  287A               	goto	u2221
  2289  0079  287B               	goto	u2220
  2290  007A                     u2221:
  2291  007A  28E2               	goto	l2563
  2292  007B                     u2220:
  2293  007B                     l2543:
  2294  007B  3023               	movlw	35
  2295  007C  064A               	xorwf	set_time@key,w
  2296  007D  1903               	btfsc	3,2
  2297  007E  2880               	goto	u2231
  2298  007F  2881               	goto	u2230
  2299  0080                     u2231:
  2300  0080  28E2               	goto	l2563
  2301  0081                     u2230:
  2302  0081                     l2545:
  2303  0081  0A4A               	incf	set_time@key,w
  2304  0082  1903               	btfsc	3,2
  2305  0083  2885               	goto	u2241
  2306  0084  2886               	goto	u2240
  2307  0085                     u2241:
  2308  0085  28E2               	goto	l2563
  2309  0086                     u2240:
  2310  0086                     l2547:
  2311                           
  2312                           ;main.c: 241:         if(key_count <= 2);main.c: 242:         {
  2313  0086  3001               	movlw	1
  2314  0087  07AA               	addwf	set_time@key_count,f
  2315  0088  1803               	skipnc
  2316  0089  0AAB               	incf	set_time@key_count+1,f
  2317  008A  3000               	movlw	0
  2318  008B  07AB               	addwf	set_time@key_count+1,f
  2319  008C                     l2549:
  2320                           
  2321                           ;main.c: 243:             sec=0;
  2322  008C  082B               	movf	set_time@key_count+1,w
  2323  008D  3A80               	xorlw	128
  2324  008E  00FF               	movwf	btemp+1
  2325  008F  3080               	movlw	128
  2326  0090  027F               	subwf	btemp+1,w
  2327  0091  1D03               	skipz
  2328  0092  2895               	goto	u2255
  2329  0093  3003               	movlw	3
  2330  0094  022A               	subwf	set_time@key_count,w
  2331  0095                     u2255:
  2332  0095  1803               	skipnc
  2333  0096  2898               	goto	u2251
  2334  0097  2899               	goto	u2250
  2335  0098                     u2251:
  2336  0098  28AE               	goto	l2555
  2337  0099                     u2250:
  2338  0099                     l2551:
  2339                           
  2340                           ;main.c: 244:             key_count = 0;;main.c: 245:         }
  2341  0099  300A               	movlw	10
  2342  009A  1283               	bcf	3,5	;RP0=0, select bank0
  2343  009B  1303               	bcf	3,6	;RP1=0, select bank0
  2344  009C  00C7               	movwf	??_set_time
  2345  009D  0847               	movf	??_set_time,w
  2346  009E  00F3               	movwf	___bmul@multiplicand
  2347  009F  0836               	movf	_sec,w
  2348  00A0  120A  118A  25E7  120A  118A  	fcall	___bmul
  2349  00A5  1283               	bcf	3,5	;RP0=0, select bank0
  2350  00A6  1303               	bcf	3,6	;RP1=0, select bank0
  2351  00A7  074A               	addwf	set_time@key,w
  2352  00A8  00C8               	movwf	??_set_time+1
  2353  00A9  0848               	movf	??_set_time+1,w
  2354  00AA  00B6               	movwf	_sec
  2355  00AB                     l2553:
  2356                           
  2357                           ;main.c: 246:         else if (key_count > 2 && key_count <= 4)
  2358  00AB  01A8               	clrf	set_time@blink_pos
  2359  00AC  01A9               	clrf	set_time@blink_pos+1
  2360                           
  2361                           ;main.c: 247:         {
  2362  00AD  28E2               	goto	l2563
  2363  00AE                     l2555:
  2364  00AE  1283               	bcf	3,5	;RP0=0, select bank0
  2365  00AF  1303               	bcf	3,6	;RP1=0, select bank0
  2366  00B0  082B               	movf	set_time@key_count+1,w
  2367  00B1  3A80               	xorlw	128
  2368  00B2  00FF               	movwf	btemp+1
  2369  00B3  3080               	movlw	128
  2370  00B4  027F               	subwf	btemp+1,w
  2371  00B5  1D03               	skipz
  2372  00B6  28B9               	goto	u2265
  2373  00B7  3003               	movlw	3
  2374  00B8  022A               	subwf	set_time@key_count,w
  2375  00B9                     u2265:
  2376  00B9  1C03               	skipc
  2377  00BA  28BC               	goto	u2261
  2378  00BB  28BD               	goto	u2260
  2379  00BC                     u2261:
  2380  00BC  28E2               	goto	l2563
  2381  00BD                     u2260:
  2382  00BD                     l2557:
  2383  00BD  1283               	bcf	3,5	;RP0=0, select bank0
  2384  00BE  1303               	bcf	3,6	;RP1=0, select bank0
  2385  00BF  082B               	movf	set_time@key_count+1,w
  2386  00C0  3A80               	xorlw	128
  2387  00C1  00FF               	movwf	btemp+1
  2388  00C2  3080               	movlw	128
  2389  00C3  027F               	subwf	btemp+1,w
  2390  00C4  1D03               	skipz
  2391  00C5  28C8               	goto	u2275
  2392  00C6  3005               	movlw	5
  2393  00C7  022A               	subwf	set_time@key_count,w
  2394  00C8                     u2275:
  2395  00C8  1803               	skipnc
  2396  00C9  28CB               	goto	u2271
  2397  00CA  28CC               	goto	u2270
  2398  00CB                     u2271:
  2399  00CB  28E2               	goto	l2563
  2400  00CC                     u2270:
  2401  00CC                     l2559:
  2402                           
  2403                           ;main.c: 249:             key_count = 2;;main.c: 250:         }
  2404  00CC  300A               	movlw	10
  2405  00CD  1283               	bcf	3,5	;RP0=0, select bank0
  2406  00CE  1303               	bcf	3,6	;RP1=0, select bank0
  2407  00CF  00C7               	movwf	??_set_time
  2408  00D0  0847               	movf	??_set_time,w
  2409  00D1  00F3               	movwf	___bmul@multiplicand
  2410  00D2  0835               	movf	_min,w
  2411  00D3  120A  118A  25E7  120A  118A  	fcall	___bmul
  2412  00D8  1283               	bcf	3,5	;RP0=0, select bank0
  2413  00D9  1303               	bcf	3,6	;RP1=0, select bank0
  2414  00DA  074A               	addwf	set_time@key,w
  2415  00DB  00C8               	movwf	??_set_time+1
  2416  00DC  0848               	movf	??_set_time+1,w
  2417  00DD  00B5               	movwf	_min
  2418  00DE                     l2561:
  2419                           
  2420                           ;main.c: 251:     }
  2421  00DE  3001               	movlw	1
  2422  00DF  00A8               	movwf	set_time@blink_pos
  2423  00E0  3000               	movlw	0
  2424  00E1  00A9               	movwf	set_time@blink_pos+1
  2425  00E2                     l2563:
  2426                           
  2427                           ;main.c: 255:         operation_mode = 0x05;
  2428  00E2  302A               	movlw	42
  2429  00E3  1283               	bcf	3,5	;RP0=0, select bank0
  2430  00E4  1303               	bcf	3,6	;RP1=0, select bank0
  2431  00E5  064A               	xorwf	set_time@key,w
  2432  00E6  1D03               	btfss	3,2
  2433  00E7  28E9               	goto	u2281
  2434  00E8  28EA               	goto	u2280
  2435  00E9                     u2281:
  2436  00E9  2922               	goto	l2577
  2437  00EA                     u2280:
  2438  00EA                     l2565:
  2439                           
  2440                           ;main.c: 256:         RC2 = 1;;main.c: 258:         TMR2ON = 1;
  2441  00EA  082B               	movf	set_time@key_count+1,w
  2442  00EB  3A80               	xorlw	128
  2443  00EC  00FF               	movwf	btemp+1
  2444  00ED  3080               	movlw	128
  2445  00EE  027F               	subwf	btemp+1,w
  2446  00EF  1D03               	skipz
  2447  00F0  28F3               	goto	u2295
  2448  00F1  3003               	movlw	3
  2449  00F2  022A               	subwf	set_time@key_count,w
  2450  00F3                     u2295:
  2451  00F3  1803               	skipnc
  2452  00F4  28F6               	goto	u2291
  2453  00F5  28F7               	goto	u2290
  2454  00F6                     u2291:
  2455  00F6  28FD               	goto	l2569
  2456  00F7                     u2290:
  2457  00F7                     l2567:
  2458                           
  2459                           ;main.c: 259:     };main.c: 260: 
  2460  00F7  1283               	bcf	3,5	;RP0=0, select bank0
  2461  00F8  1303               	bcf	3,6	;RP1=0, select bank0
  2462  00F9  01B6               	clrf	_sec
  2463                           
  2464                           ;main.c: 261: 
  2465  00FA  01AA               	clrf	set_time@key_count
  2466  00FB  01AB               	clrf	set_time@key_count+1
  2467                           
  2468                           ;main.c: 262:    if (wait++ == 15 )
  2469  00FC  2922               	goto	l2577
  2470  00FD                     l2569:
  2471  00FD  1283               	bcf	3,5	;RP0=0, select bank0
  2472  00FE  1303               	bcf	3,6	;RP1=0, select bank0
  2473  00FF  082B               	movf	set_time@key_count+1,w
  2474  0100  3A80               	xorlw	128
  2475  0101  00FF               	movwf	btemp+1
  2476  0102  3080               	movlw	128
  2477  0103  027F               	subwf	btemp+1,w
  2478  0104  1D03               	skipz
  2479  0105  2908               	goto	u2305
  2480  0106  3003               	movlw	3
  2481  0107  022A               	subwf	set_time@key_count,w
  2482  0108                     u2305:
  2483  0108  1C03               	skipc
  2484  0109  290B               	goto	u2301
  2485  010A  290C               	goto	u2300
  2486  010B                     u2301:
  2487  010B  2922               	goto	l2577
  2488  010C                     u2300:
  2489  010C                     l2571:
  2490  010C  1283               	bcf	3,5	;RP0=0, select bank0
  2491  010D  1303               	bcf	3,6	;RP1=0, select bank0
  2492  010E  082B               	movf	set_time@key_count+1,w
  2493  010F  3A80               	xorlw	128
  2494  0110  00FF               	movwf	btemp+1
  2495  0111  3080               	movlw	128
  2496  0112  027F               	subwf	btemp+1,w
  2497  0113  1D03               	skipz
  2498  0114  2917               	goto	u2315
  2499  0115  3005               	movlw	5
  2500  0116  022A               	subwf	set_time@key_count,w
  2501  0117                     u2315:
  2502  0117  1803               	skipnc
  2503  0118  291A               	goto	u2311
  2504  0119  291B               	goto	u2310
  2505  011A                     u2311:
  2506  011A  2922               	goto	l2577
  2507  011B                     u2310:
  2508  011B                     l2573:
  2509                           
  2510                           ;main.c: 264:        wait = 0;;main.c: 265:        blink = !blink;
  2511  011B  1283               	bcf	3,5	;RP0=0, select bank0
  2512  011C  1303               	bcf	3,6	;RP1=0, select bank0
  2513  011D  01B5               	clrf	_min
  2514  011E                     l2575:
  2515                           
  2516                           ;main.c: 266:        clcd_putch(sec/10 + '0', (0xC0 + 9));
  2517  011E  3002               	movlw	2
  2518  011F  00AA               	movwf	set_time@key_count
  2519  0120  3000               	movlw	0
  2520  0121  00AB               	movwf	set_time@key_count+1
  2521  0122                     l2577:
  2522                           
  2523                           ;main.c: 269:        clcd_putch(min%10 + '0', (0xC0 + 7));
  2524  0122  3023               	movlw	35
  2525  0123  1283               	bcf	3,5	;RP0=0, select bank0
  2526  0124  1303               	bcf	3,6	;RP1=0, select bank0
  2527  0125  064A               	xorwf	set_time@key,w
  2528  0126  1D03               	btfss	3,2
  2529  0127  2929               	goto	u2321
  2530  0128  292A               	goto	u2320
  2531  0129                     u2321:
  2532  0129  2937               	goto	l2587
  2533  012A                     u2320:
  2534  012A                     l2579:
  2535                           
  2536                           ;main.c: 270:    };main.c: 271:    if (blink)
  2537  012A  120A  118A  27F1  120A  118A  	fcall	_clear_clcd
  2538  012F                     l2581:
  2539                           
  2540                           ;main.c: 272:    {
  2541  012F  3005               	movlw	5
  2542  0130  1283               	bcf	3,5	;RP0=0, select bank0
  2543  0131  1303               	bcf	3,6	;RP1=0, select bank0
  2544  0132  00C7               	movwf	??_set_time
  2545  0133  0847               	movf	??_set_time,w
  2546  0134  00B3               	movwf	_operation_mode
  2547  0135                     l2583:
  2548                           
  2549                           ;main.c: 273:        switch (blink_pos){
  2550  0135  1507               	bsf	7,2	;volatile
  2551  0136                     l2585:
  2552                           
  2553                           ;main.c: 275:                clcd_print("  ",(0xC0 + 9));
  2554  0136  1512               	bsf	18,2	;volatile
  2555  0137                     l2587:
  2556                           
  2557                           ;main.c: 279:                break;
  2558  0137  3001               	movlw	1
  2559  0138  07AE               	addwf	set_time@wait,f
  2560  0139  1803               	skipnc
  2561  013A  0AAF               	incf	set_time@wait+1,f
  2562  013B  3000               	movlw	0
  2563  013C  07AF               	addwf	set_time@wait+1,f
  2564  013D  3010               	movlw	16
  2565  013E  062E               	xorwf	set_time@wait,w
  2566  013F  042F               	iorwf	set_time@wait+1,w
  2567  0140  1D03               	btfss	3,2
  2568  0141  2943               	goto	u2331
  2569  0142  2944               	goto	u2330
  2570  0143                     u2331:
  2571  0143  29CA               	goto	l2601
  2572  0144                     u2330:
  2573  0144                     l2589:
  2574                           
  2575                           ;main.c: 280:        };main.c: 281: 
  2576  0144  01AE               	clrf	set_time@wait
  2577  0145  01AF               	clrf	set_time@wait+1
  2578  0146                     l2591:
  2579                           
  2580                           ;main.c: 282: 
  2581  0146  082C               	movf	set_time@blink,w
  2582  0147  042D               	iorwf	set_time@blink+1,w
  2583  0148  1903               	btfsc	3,2
  2584  0149  294B               	goto	u2341
  2585  014A  294D               	goto	u2340
  2586  014B                     u2341:
  2587  014B  3001               	movlw	1
  2588  014C  294E               	goto	u2350
  2589  014D                     u2340:
  2590  014D  3000               	movlw	0
  2591  014E                     u2350:
  2592  014E  00C7               	movwf	??_set_time
  2593  014F  01C8               	clrf	??_set_time+1
  2594  0150  0847               	movf	??_set_time,w
  2595  0151  00AC               	movwf	set_time@blink
  2596  0152  0848               	movf	??_set_time+1,w
  2597  0153  00AD               	movwf	set_time@blink+1
  2598  0154                     l2593:
  2599                           
  2600                           ;main.c: 283:    }
  2601  0154  30C9               	movlw	201
  2602  0155  00C7               	movwf	??_set_time
  2603  0156  0847               	movf	??_set_time,w
  2604  0157  00C5               	movwf	clcd_putch@addr
  2605  0158  300A               	movlw	10
  2606  0159  00F3               	movwf	___awdiv@divisor
  2607  015A  3000               	movlw	0
  2608  015B  00F4               	movwf	___awdiv@divisor+1
  2609  015C  0836               	movf	_sec,w
  2610  015D  00C8               	movwf	??_set_time+1
  2611  015E  01C9               	clrf	??_set_time+2
  2612  015F  0848               	movf	??_set_time+1,w
  2613  0160  00F5               	movwf	___awdiv@dividend
  2614  0161  0849               	movf	??_set_time+2,w
  2615  0162  00F6               	movwf	___awdiv@dividend+1
  2616  0163  120A  118A  2543  120A  118A  	fcall	___awdiv
  2617  0168  0873               	movf	?___awdiv,w
  2618  0169  3E30               	addlw	48
  2619  016A  120A  158A  24E3  120A  118A  	fcall	_clcd_putch
  2620  016F                     l2595:
  2621                           
  2622                           ;main.c: 284: 
  2623  016F  30CA               	movlw	202
  2624  0170  1283               	bcf	3,5	;RP0=0, select bank0
  2625  0171  1303               	bcf	3,6	;RP1=0, select bank0
  2626  0172  00C7               	movwf	??_set_time
  2627  0173  0847               	movf	??_set_time,w
  2628  0174  00C5               	movwf	clcd_putch@addr
  2629  0175  300A               	movlw	10
  2630  0176  00BF               	movwf	___awmod@divisor
  2631  0177  3000               	movlw	0
  2632  0178  00C0               	movwf	___awmod@divisor+1
  2633  0179  0836               	movf	_sec,w
  2634  017A  00C8               	movwf	??_set_time+1
  2635  017B  01C9               	clrf	??_set_time+2
  2636  017C  0848               	movf	??_set_time+1,w
  2637  017D  00C1               	movwf	___awmod@dividend
  2638  017E  0849               	movf	??_set_time+2,w
  2639  017F  00C2               	movwf	___awmod@dividend+1
  2640  0180  120A  158A  25DE  120A  118A  	fcall	___awmod
  2641  0185  1283               	bcf	3,5	;RP0=0, select bank0
  2642  0186  1303               	bcf	3,6	;RP1=0, select bank0
  2643  0187  083F               	movf	?___awmod,w
  2644  0188  3E30               	addlw	48
  2645  0189  120A  158A  24E3  120A  118A  	fcall	_clcd_putch
  2646  018E                     l2597:
  2647                           
  2648                           ;main.c: 285: 
  2649  018E  30C6               	movlw	198
  2650  018F  1283               	bcf	3,5	;RP0=0, select bank0
  2651  0190  1303               	bcf	3,6	;RP1=0, select bank0
  2652  0191  00C7               	movwf	??_set_time
  2653  0192  0847               	movf	??_set_time,w
  2654  0193  00C5               	movwf	clcd_putch@addr
  2655  0194  300A               	movlw	10
  2656  0195  00F3               	movwf	___awdiv@divisor
  2657  0196  3000               	movlw	0
  2658  0197  00F4               	movwf	___awdiv@divisor+1
  2659  0198  0835               	movf	_min,w
  2660  0199  00C8               	movwf	??_set_time+1
  2661  019A  01C9               	clrf	??_set_time+2
  2662  019B  0848               	movf	??_set_time+1,w
  2663  019C  00F5               	movwf	___awdiv@dividend
  2664  019D  0849               	movf	??_set_time+2,w
  2665  019E  00F6               	movwf	___awdiv@dividend+1
  2666  019F  120A  118A  2543  120A  118A  	fcall	___awdiv
  2667  01A4  0873               	movf	?___awdiv,w
  2668  01A5  3E30               	addlw	48
  2669  01A6  120A  158A  24E3  120A  118A  	fcall	_clcd_putch
  2670  01AB                     l2599:
  2671                           
  2672                           ;main.c: 286: }
  2673  01AB  30C7               	movlw	199
  2674  01AC  1283               	bcf	3,5	;RP0=0, select bank0
  2675  01AD  1303               	bcf	3,6	;RP1=0, select bank0
  2676  01AE  00C7               	movwf	??_set_time
  2677  01AF  0847               	movf	??_set_time,w
  2678  01B0  00C5               	movwf	clcd_putch@addr
  2679  01B1  300A               	movlw	10
  2680  01B2  00BF               	movwf	___awmod@divisor
  2681  01B3  3000               	movlw	0
  2682  01B4  00C0               	movwf	___awmod@divisor+1
  2683  01B5  0835               	movf	_min,w
  2684  01B6  00C8               	movwf	??_set_time+1
  2685  01B7  01C9               	clrf	??_set_time+2
  2686  01B8  0848               	movf	??_set_time+1,w
  2687  01B9  00C1               	movwf	___awmod@dividend
  2688  01BA  0849               	movf	??_set_time+2,w
  2689  01BB  00C2               	movwf	___awmod@dividend+1
  2690  01BC  120A  158A  25DE  120A  118A  	fcall	___awmod
  2691  01C1  1283               	bcf	3,5	;RP0=0, select bank0
  2692  01C2  1303               	bcf	3,6	;RP1=0, select bank0
  2693  01C3  083F               	movf	?___awmod,w
  2694  01C4  3E30               	addlw	48
  2695  01C5  120A  158A  24E3  120A  118A  	fcall	_clcd_putch
  2696  01CA                     l2601:
  2697                           
  2698                           ;main.c: 288: {
  2699  01CA  1283               	bcf	3,5	;RP0=0, select bank0
  2700  01CB  1303               	bcf	3,6	;RP1=0, select bank0
  2701  01CC  082C               	movf	set_time@blink,w
  2702  01CD  042D               	iorwf	set_time@blink+1,w
  2703  01CE  1903               	btfsc	3,2
  2704  01CF  29D1               	goto	u2361
  2705  01D0  29D2               	goto	u2360
  2706  01D1                     u2361:
  2707  01D1  29FC               	goto	l148
  2708  01D2                     u2360:
  2709  01D2  29EF               	goto	l2611
  2710  01D3                     l2605:
  2711                           
  2712                           ;main.c: 292:     {
  2713  01D3  300E               	movlw	low ((STR_23+14)| (0+32768))
  2714  01D4  00BB               	movwf	clcd_print@str
  2715  01D5  3086               	movlw	high ((STR_23+14)| (0+32768))
  2716  01D6  00BC               	movwf	clcd_print@str+1
  2717  01D7  30C9               	movlw	201
  2718  01D8  00C7               	movwf	??_set_time
  2719  01D9  0847               	movf	??_set_time,w
  2720  01DA  00BD               	movwf	clcd_print@addr
  2721  01DB  120A  158A  253E  120A  118A  	fcall	_clcd_print
  2722                           
  2723                           ;main.c: 293: 
  2724  01E0  29FC               	goto	l148
  2725  01E1                     l2607:
  2726                           
  2727                           ;main.c: 295:         RC2 = 0;
  2728  01E1  300E               	movlw	low ((STR_23+14)| (0+32768))
  2729  01E2  00BB               	movwf	clcd_print@str
  2730  01E3  3086               	movlw	high ((STR_23+14)| (0+32768))
  2731  01E4  00BC               	movwf	clcd_print@str+1
  2732  01E5  30C6               	movlw	198
  2733  01E6  00C7               	movwf	??_set_time
  2734  01E7  0847               	movf	??_set_time,w
  2735  01E8  00BD               	movwf	clcd_print@addr
  2736  01E9  120A  158A  253E  120A  118A  	fcall	_clcd_print
  2737                           
  2738                           ;main.c: 296:         RC1 = 1;
  2739  01EE  29FC               	goto	l148
  2740  01EF                     l2611:
  2741                           
  2742                           ; Switch on 2 bytes has been partitioned into a top level switch of size 1, and 1 sub-sw
      +                          itches
  2743                           ; Switch size 1, requested type "simple"
  2744                           ; Number of cases is 1, Range of values is 0 to 0
  2745                           ; switch strategies available:
  2746                           ; Name         Instructions Cycles
  2747                           ; simple_byte            4     3 (average)
  2748                           ; direct_byte           11     8 (fixed)
  2749                           ; jumptable            260     6 (fixed)
  2750                           ;	Chosen strategy is simple_byte
  2751  01EF  0829               	movf	set_time@blink_pos+1,w
  2752  01F0  3A00               	xorlw	0	; case 0
  2753  01F1  1903               	skipnz
  2754  01F2  29F4               	goto	l2899
  2755  01F3  29FC               	goto	l148
  2756  01F4                     l2899:
  2757                           
  2758                           ; Switch size 1, requested type "simple"
  2759                           ; Number of cases is 2, Range of values is 0 to 1
  2760                           ; switch strategies available:
  2761                           ; Name         Instructions Cycles
  2762                           ; simple_byte            7     4 (average)
  2763                           ; direct_byte           14     8 (fixed)
  2764                           ; jumptable            260     6 (fixed)
  2765                           ;	Chosen strategy is simple_byte
  2766  01F4  0828               	movf	set_time@blink_pos,w
  2767  01F5  3A00               	xorlw	0	; case 0
  2768  01F6  1903               	skipnz
  2769  01F7  29D3               	goto	l2605
  2770  01F8  3A01               	xorlw	1	; case 1
  2771  01F9  1903               	skipnz
  2772  01FA  29E1               	goto	l2607
  2773  01FB  29FC               	goto	l148
  2774  01FC                     l148:
  2775  01FC  0008               	return
  2776  01FD                     __end_of_set_time:
  2777                           
  2778                           	psect	text4
  2779  01FD                     __ptext4:	
  2780 ;; *************** function _set_temp *****************
  2781 ;; Defined at:
  2782 ;;		line 361 in file "main.c"
  2783 ;; Parameters:    Size  Location     Type
  2784 ;;  key             1    wreg     unsigned char 
  2785 ;; Auto vars:     Size  Location     Type
  2786 ;;  key             1   15[BANK0 ] unsigned char 
  2787 ;; Return value:  Size  Location     Type
  2788 ;;                  1    wreg      void 
  2789 ;; Registers used:
  2790 ;;		wreg, fsr0l, fsr0h, status,2, status,0, btemp+1, pclath, cstack
  2791 ;; Tracked objects:
  2792 ;;		On entry : 0/0
  2793 ;;		On exit  : 0/0
  2794 ;;		Unchanged: 0/0
  2795 ;; Data sizes:     COMMON   BANK0   BANK1   BANK3   BANK2
  2796 ;;      Params:         0       0       0       0       0
  2797 ;;      Locals:         0       1       0       0       0
  2798 ;;      Temps:          0       3       0       0       0
  2799 ;;      Totals:         0       4       0       0       0
  2800 ;;Total ram usage:        4 bytes
  2801 ;; Hardware stack levels used: 1
  2802 ;; Hardware stack levels required when called: 3
  2803 ;; This function calls:
  2804 ;;		___awdiv
  2805 ;;		___awmod
  2806 ;;		___bmul
  2807 ;;		_clcd_print
  2808 ;;		_clcd_putch
  2809 ;;		_clear_clcd
  2810 ;; This function is called by:
  2811 ;;		_main
  2812 ;; This function uses a non-reentrant model
  2813 ;;
  2814                           
  2815                           
  2816                           ;psect for function _set_temp
  2817  01FD                     _set_temp:
  2818                           
  2819                           ;incstack = 0
  2820                           ; Regs used in _set_temp: [wreg-fsr0h+status,2+status,0+btemp+1+pclath+cstack]
  2821                           ;set_temp@key stored from wreg
  2822  01FD  1283               	bcf	3,5	;RP0=0, select bank0
  2823  01FE  1303               	bcf	3,6	;RP1=0, select bank0
  2824  01FF  00CA               	movwf	set_temp@key
  2825  0200                     l2617:
  2826                           
  2827                           ;main.c: 361: ;main.c: 362:     if(key != '*' && key != '#' && key != 0xFF);main.c: 363:
      +                               {;main.c: 364:         key_count++;;main.c: 365:         if(key_count <= 3 )
  2828  0200  3011               	movlw	17
  2829  0201  0632               	xorwf	_reset_flag,w
  2830  0202  1D03               	btfss	3,2
  2831  0203  2A05               	goto	u2371
  2832  0204  2A06               	goto	u2370
  2833  0205                     u2371:
  2834  0205  2A4A               	goto	l2633
  2835  0206                     u2370:
  2836  0206                     l2619:
  2837                           
  2838                           ;main.c: 366:         {;main.c: 367:             temp = temp * 10 + key;
  2839  0206  30FF               	movlw	255
  2840  0207  00C7               	movwf	??_set_temp
  2841  0208  0847               	movf	??_set_temp,w
  2842  0209  00CA               	movwf	set_temp@key
  2843  020A                     l2621:
  2844                           
  2845                           ;main.c: 368:         }
  2846  020A  01B4               	clrf	_temp
  2847  020B                     l2623:
  2848                           
  2849                           ;main.c: 369:     }
  2850  020B  300F               	movlw	15
  2851  020C  00A6               	movwf	set_temp@wait
  2852  020D  3000               	movlw	0
  2853  020E  00A7               	movwf	set_temp@wait+1
  2854                           
  2855                           ;main.c: 370:     else if (key == '*')
  2856  020F  01A4               	clrf	set_temp@blink
  2857  0210  01A5               	clrf	set_temp@blink+1
  2858                           
  2859                           ;main.c: 371:         {
  2860  0211  01A2               	clrf	set_temp@key_count
  2861  0212  01A3               	clrf	set_temp@key_count+1
  2862  0213                     l2625:
  2863                           
  2864                           ;main.c: 372:             temp = 0;
  2865  0213  3096               	movlw	low (STR_20| (0+32768))
  2866  0214  00BB               	movwf	clcd_print@str
  2867  0215  3086               	movlw	high (STR_20| (0+32768))
  2868  0216  00BC               	movwf	clcd_print@str+1
  2869  0217  3080               	movlw	128
  2870  0218  00C7               	movwf	??_set_temp
  2871  0219  0847               	movf	??_set_temp,w
  2872  021A  00BD               	movwf	clcd_print@addr
  2873  021B  120A  158A  253E  120A  118A  	fcall	_clcd_print
  2874  0220                     l2627:
  2875                           
  2876                           ;main.c: 373:             key_count = 0;
  2877  0220  308B               	movlw	139
  2878  0221  1283               	bcf	3,5	;RP0=0, select bank0
  2879  0222  1303               	bcf	3,6	;RP1=0, select bank0
  2880  0223  00C7               	movwf	??_set_temp
  2881  0224  0847               	movf	??_set_temp,w
  2882  0225  00C5               	movwf	clcd_putch@addr
  2883  0226  30DF               	movlw	223
  2884  0227  120A  158A  24E3  120A  118A  	fcall	_clcd_putch
  2885  022C                     l2629:
  2886                           
  2887                           ;main.c: 375:     else if (key == '#')
  2888  022C  30D9               	movlw	low (STR_21| (0+32768))
  2889  022D  1283               	bcf	3,5	;RP0=0, select bank0
  2890  022E  1303               	bcf	3,6	;RP1=0, select bank0
  2891  022F  00BB               	movwf	clcd_print@str
  2892  0230  3086               	movlw	high (STR_21| (0+32768))
  2893  0231  00BC               	movwf	clcd_print@str+1
  2894  0232  30C0               	movlw	192
  2895  0233  00C7               	movwf	??_set_temp
  2896  0234  0847               	movf	??_set_temp,w
  2897  0235  00BD               	movwf	clcd_print@addr
  2898  0236  120A  158A  253E  120A  118A  	fcall	_clcd_print
  2899  023B                     l2631:
  2900                           
  2901                           ;main.c: 376:         {
  2902  023B  3066               	movlw	low (STR_10| (0+32768))
  2903  023C  1283               	bcf	3,5	;RP0=0, select bank0
  2904  023D  1303               	bcf	3,6	;RP1=0, select bank0
  2905  023E  00BB               	movwf	clcd_print@str
  2906  023F  3086               	movlw	high (STR_10| (0+32768))
  2907  0240  00BC               	movwf	clcd_print@str+1
  2908  0241  30D0               	movlw	208
  2909  0242  00C7               	movwf	??_set_temp
  2910  0243  0847               	movf	??_set_temp,w
  2911  0244  00BD               	movwf	clcd_print@addr
  2912  0245  120A  158A  253E  120A  118A  	fcall	_clcd_print
  2913  024A                     l2633:
  2914                           
  2915                           ;main.c: 379:             clcd_print("Time Rem.=",(0x90 + 0));
  2916  024A  302A               	movlw	42
  2917  024B  1283               	bcf	3,5	;RP0=0, select bank0
  2918  024C  1303               	bcf	3,6	;RP1=0, select bank0
  2919  024D  064A               	xorwf	set_temp@key,w
  2920  024E  1903               	btfsc	3,2
  2921  024F  2A51               	goto	u2381
  2922  0250  2A52               	goto	u2380
  2923  0251                     u2381:
  2924  0251  2A83               	goto	l2645
  2925  0252                     u2380:
  2926  0252                     l2635:
  2927  0252  3023               	movlw	35
  2928  0253  064A               	xorwf	set_temp@key,w
  2929  0254  1903               	btfsc	3,2
  2930  0255  2A57               	goto	u2391
  2931  0256  2A58               	goto	u2390
  2932  0257                     u2391:
  2933  0257  2A83               	goto	l2645
  2934  0258                     u2390:
  2935  0258                     l2637:
  2936  0258  0A4A               	incf	set_temp@key,w
  2937  0259  1903               	btfsc	3,2
  2938  025A  2A5C               	goto	u2401
  2939  025B  2A5D               	goto	u2400
  2940  025C                     u2401:
  2941  025C  2A83               	goto	l2645
  2942  025D                     u2400:
  2943  025D                     l2639:
  2944                           
  2945                           ;main.c: 380: ;main.c: 381:             sec = 180;
  2946  025D  3001               	movlw	1
  2947  025E  07A2               	addwf	set_temp@key_count,f
  2948  025F  1803               	skipnc
  2949  0260  0AA3               	incf	set_temp@key_count+1,f
  2950  0261  3000               	movlw	0
  2951  0262  07A3               	addwf	set_temp@key_count+1,f
  2952  0263                     l2641:
  2953                           
  2954                           ;main.c: 382:             TMR2ON = 1;
  2955  0263  0823               	movf	set_temp@key_count+1,w
  2956  0264  3A80               	xorlw	128
  2957  0265  00FF               	movwf	btemp+1
  2958  0266  3080               	movlw	128
  2959  0267  027F               	subwf	btemp+1,w
  2960  0268  1D03               	skipz
  2961  0269  2A6C               	goto	u2415
  2962  026A  3004               	movlw	4
  2963  026B  0222               	subwf	set_temp@key_count,w
  2964  026C                     u2415:
  2965  026C  1803               	skipnc
  2966  026D  2A6F               	goto	u2411
  2967  026E  2A70               	goto	u2410
  2968  026F                     u2411:
  2969  026F  2B3D               	goto	l173
  2970  0270                     u2410:
  2971  0270                     l2643:
  2972                           
  2973                           ;main.c: 383:             while(sec != 0);main.c: 384: 
  2974  0270  300A               	movlw	10
  2975  0271  1283               	bcf	3,5	;RP0=0, select bank0
  2976  0272  1303               	bcf	3,6	;RP1=0, select bank0
  2977  0273  00C7               	movwf	??_set_temp
  2978  0274  0847               	movf	??_set_temp,w
  2979  0275  00F3               	movwf	___bmul@multiplicand
  2980  0276  0834               	movf	_temp,w
  2981  0277  120A  118A  25E7  120A  118A  	fcall	___bmul
  2982  027C  1283               	bcf	3,5	;RP0=0, select bank0
  2983  027D  1303               	bcf	3,6	;RP1=0, select bank0
  2984  027E  074A               	addwf	set_temp@key,w
  2985  027F  00C8               	movwf	??_set_temp+1
  2986  0280  0848               	movf	??_set_temp+1,w
  2987  0281  00B4               	movwf	_temp
  2988  0282  2B3D               	goto	l173
  2989  0283                     l2645:
  2990  0283  302A               	movlw	42
  2991  0284  064A               	xorwf	set_temp@key,w
  2992  0285  1D03               	btfss	3,2
  2993  0286  2A88               	goto	u2421
  2994  0287  2A89               	goto	u2420
  2995  0288                     u2421:
  2996  0288  2A8D               	goto	l2649
  2997  0289                     u2420:
  2998  0289                     l2647:
  2999                           
  3000                           ;main.c: 388:               clcd_putch(sec%10 + '0', (0x90 + 12));;main.c: 389:         
      +                              }
  3001  0289  01B4               	clrf	_temp
  3002                           
  3003                           ;main.c: 390: 
  3004  028A  01A2               	clrf	set_temp@key_count
  3005  028B  01A3               	clrf	set_temp@key_count+1
  3006                           
  3007                           ;main.c: 391:             TMR2ON = 0;
  3008  028C  2B3D               	goto	l173
  3009  028D                     l2649:
  3010  028D  3023               	movlw	35
  3011  028E  064A               	xorwf	set_temp@key,w
  3012  028F  1D03               	btfss	3,2
  3013  0290  2A92               	goto	u2431
  3014  0291  2A93               	goto	u2430
  3015  0292                     u2431:
  3016  0292  2B3D               	goto	l173
  3017  0293                     u2430:
  3018  0293                     l2651:
  3019                           
  3020                           ;main.c: 393:             convec_mode_op = 0X0A;;main.c: 394:             reset_flag = 0
      +                          x10;
  3021  0293  120A  118A  27F1  120A  118A  	fcall	_clear_clcd
  3022  0298                     l2653:
  3023                           
  3024                           ;main.c: 395: 
  3025  0298  3000               	movlw	low (STR_23| (0+32768))
  3026  0299  1283               	bcf	3,5	;RP0=0, select bank0
  3027  029A  1303               	bcf	3,6	;RP1=0, select bank0
  3028  029B  00BB               	movwf	clcd_print@str
  3029  029C  3086               	movlw	high (STR_23| (0+32768))
  3030  029D  00BC               	movwf	clcd_print@str+1
  3031  029E  3080               	movlw	128
  3032  029F  00C7               	movwf	??_set_temp
  3033  02A0  0847               	movf	??_set_temp,w
  3034  02A1  00BD               	movwf	clcd_print@addr
  3035  02A2  120A  158A  253E  120A  118A  	fcall	_clcd_print
  3036  02A7                     l2655:
  3037                           
  3038                           ;main.c: 396: 
  3039  02A7  30B2               	movlw	low (STR_24| (0+32768))
  3040  02A8  1283               	bcf	3,5	;RP0=0, select bank0
  3041  02A9  1303               	bcf	3,6	;RP1=0, select bank0
  3042  02AA  00BB               	movwf	clcd_print@str
  3043  02AB  3086               	movlw	high (STR_24| (0+32768))
  3044  02AC  00BC               	movwf	clcd_print@str+1
  3045  02AD  3090               	movlw	144
  3046  02AE  00C7               	movwf	??_set_temp
  3047  02AF  0847               	movf	??_set_temp,w
  3048  02B0  00BD               	movwf	clcd_print@addr
  3049  02B1  120A  158A  253E  120A  118A  	fcall	_clcd_print
  3050  02B6                     l2657:
  3051                           
  3052                           ;main.c: 398: 
  3053  02B6  30B4               	movlw	180
  3054  02B7  1283               	bcf	3,5	;RP0=0, select bank0
  3055  02B8  1303               	bcf	3,6	;RP1=0, select bank0
  3056  02B9  00C7               	movwf	??_set_temp
  3057  02BA  0847               	movf	??_set_temp,w
  3058  02BB  00B6               	movwf	_sec
  3059  02BC                     l2659:
  3060                           
  3061                           ;main.c: 399: 
  3062  02BC  1512               	bsf	18,2	;volatile
  3063                           
  3064                           ;main.c: 400: 
  3065  02BD  2B26               	goto	l2663
  3066  02BE                     l2661:
  3067                           
  3068                           ;main.c: 402:         temp_arr[1] = (temp / 10) % 10 + '0';;main.c: 403:         temp_ar
      +                          r[2] = (temp % 10) + '0';
  3069  02BE  309A               	movlw	154
  3070  02BF  00C7               	movwf	??_set_temp
  3071  02C0  0847               	movf	??_set_temp,w
  3072  02C1  00C5               	movwf	clcd_putch@addr
  3073  02C2  3064               	movlw	100
  3074  02C3  00F3               	movwf	___awdiv@divisor
  3075  02C4  3000               	movlw	0
  3076  02C5  00F4               	movwf	___awdiv@divisor+1
  3077  02C6  0836               	movf	_sec,w
  3078  02C7  00C8               	movwf	??_set_temp+1
  3079  02C8  01C9               	clrf	??_set_temp+2
  3080  02C9  0848               	movf	??_set_temp+1,w
  3081  02CA  00F5               	movwf	___awdiv@dividend
  3082  02CB  0849               	movf	??_set_temp+2,w
  3083  02CC  00F6               	movwf	___awdiv@dividend+1
  3084  02CD  120A  118A  2543  120A  118A  	fcall	___awdiv
  3085  02D2  0873               	movf	?___awdiv,w
  3086  02D3  3E30               	addlw	48
  3087  02D4  120A  158A  24E3  120A  118A  	fcall	_clcd_putch
  3088                           
  3089                           ;main.c: 404:         temp_arr[3] = '\0';
  3090  02D9  309B               	movlw	155
  3091  02DA  1283               	bcf	3,5	;RP0=0, select bank0
  3092  02DB  1303               	bcf	3,6	;RP1=0, select bank0
  3093  02DC  00C7               	movwf	??_set_temp
  3094  02DD  0847               	movf	??_set_temp,w
  3095  02DE  00C5               	movwf	clcd_putch@addr
  3096  02DF  300A               	movlw	10
  3097  02E0  00BF               	movwf	___awmod@divisor
  3098  02E1  3000               	movlw	0
  3099  02E2  00C0               	movwf	___awmod@divisor+1
  3100  02E3  300A               	movlw	10
  3101  02E4  00F3               	movwf	___awdiv@divisor
  3102  02E5  3000               	movlw	0
  3103  02E6  00F4               	movwf	___awdiv@divisor+1
  3104  02E7  0836               	movf	_sec,w
  3105  02E8  00C8               	movwf	??_set_temp+1
  3106  02E9  01C9               	clrf	??_set_temp+2
  3107  02EA  0848               	movf	??_set_temp+1,w
  3108  02EB  00F5               	movwf	___awdiv@dividend
  3109  02EC  0849               	movf	??_set_temp+2,w
  3110  02ED  00F6               	movwf	___awdiv@dividend+1
  3111  02EE  120A  118A  2543  120A  118A  	fcall	___awdiv
  3112  02F3  0874               	movf	?___awdiv+1,w
  3113  02F4  1283               	bcf	3,5	;RP0=0, select bank0
  3114  02F5  1303               	bcf	3,6	;RP1=0, select bank0
  3115  02F6  00C2               	movwf	___awmod@dividend+1
  3116  02F7  0873               	movf	?___awdiv,w
  3117  02F8  00C1               	movwf	___awmod@dividend
  3118  02F9  120A  158A  25DE  120A  118A  	fcall	___awmod
  3119  02FE  1283               	bcf	3,5	;RP0=0, select bank0
  3120  02FF  1303               	bcf	3,6	;RP1=0, select bank0
  3121  0300  083F               	movf	?___awmod,w
  3122  0301  3E30               	addlw	48
  3123  0302  120A  158A  24E3  120A  118A  	fcall	_clcd_putch
  3124                           
  3125                           ;main.c: 405: 
  3126  0307  309C               	movlw	156
  3127  0308  1283               	bcf	3,5	;RP0=0, select bank0
  3128  0309  1303               	bcf	3,6	;RP1=0, select bank0
  3129  030A  00C7               	movwf	??_set_temp
  3130  030B  0847               	movf	??_set_temp,w
  3131  030C  00C5               	movwf	clcd_putch@addr
  3132  030D  300A               	movlw	10
  3133  030E  00BF               	movwf	___awmod@divisor
  3134  030F  3000               	movlw	0
  3135  0310  00C0               	movwf	___awmod@divisor+1
  3136  0311  0836               	movf	_sec,w
  3137  0312  00C8               	movwf	??_set_temp+1
  3138  0313  01C9               	clrf	??_set_temp+2
  3139  0314  0848               	movf	??_set_temp+1,w
  3140  0315  00C1               	movwf	___awmod@dividend
  3141  0316  0849               	movf	??_set_temp+2,w
  3142  0317  00C2               	movwf	___awmod@dividend+1
  3143  0318  120A  158A  25DE  120A  118A  	fcall	___awmod
  3144  031D  1283               	bcf	3,5	;RP0=0, select bank0
  3145  031E  1303               	bcf	3,6	;RP1=0, select bank0
  3146  031F  083F               	movf	?___awmod,w
  3147  0320  3E30               	addlw	48
  3148  0321  120A  158A  24E3  120A  118A  	fcall	_clcd_putch
  3149  0326                     l2663:
  3150                           
  3151                           ;main.c: 400: 
  3152  0326  1283               	bcf	3,5	;RP0=0, select bank0
  3153  0327  1303               	bcf	3,6	;RP1=0, select bank0
  3154  0328  0836               	movf	_sec,w
  3155  0329  1D03               	btfss	3,2
  3156  032A  2B2C               	goto	u2441
  3157  032B  2B2D               	goto	u2440
  3158  032C                     u2441:
  3159  032C  2ABE               	goto	l2661
  3160  032D                     u2440:
  3161  032D                     l179:
  3162                           
  3163                           ;main.c: 408:                 wait = 0;
  3164  032D  1112               	bcf	18,2	;volatile
  3165  032E                     l2665:
  3166                           
  3167                           ;main.c: 409:                 blink = !blink;
  3168  032E  120A  118A  27F1  120A  118A  	fcall	_clear_clcd
  3169  0333                     l2667:
  3170                           
  3171                           ;main.c: 410:                 clcd_print(temp_arr,(0xC0 + 8));
  3172  0333  300A               	movlw	10
  3173  0334  1283               	bcf	3,5	;RP0=0, select bank0
  3174  0335  1303               	bcf	3,6	;RP1=0, select bank0
  3175  0336  00C7               	movwf	??_set_temp
  3176  0337  0847               	movf	??_set_temp,w
  3177  0338  00B1               	movwf	_convec_mode_op
  3178  0339                     l2669:
  3179                           
  3180                           ;main.c: 411: 
  3181  0339  3010               	movlw	16
  3182  033A  00C7               	movwf	??_set_temp
  3183  033B  0847               	movf	??_set_temp,w
  3184  033C  00B2               	movwf	_reset_flag
  3185  033D                     l173:
  3186                           
  3187                           ;main.c: 418: 
  3188  033D  3064               	movlw	100
  3189  033E  00F3               	movwf	___awdiv@divisor
  3190  033F  3000               	movlw	0
  3191  0340  00F4               	movwf	___awdiv@divisor+1
  3192  0341  1283               	bcf	3,5	;RP0=0, select bank0
  3193  0342  1303               	bcf	3,6	;RP1=0, select bank0
  3194  0343  0834               	movf	_temp,w
  3195  0344  00C7               	movwf	??_set_temp
  3196  0345  01C8               	clrf	??_set_temp+1
  3197  0346  0847               	movf	??_set_temp,w
  3198  0347  00F5               	movwf	___awdiv@dividend
  3199  0348  0848               	movf	??_set_temp+1,w
  3200  0349  00F6               	movwf	___awdiv@dividend+1
  3201  034A  120A  118A  2543  120A  118A  	fcall	___awdiv
  3202  034F  0873               	movf	?___awdiv,w
  3203  0350  3E30               	addlw	48
  3204  0351  1283               	bcf	3,5	;RP0=0, select bank0
  3205  0352  1303               	bcf	3,6	;RP1=0, select bank0
  3206  0353  00C9               	movwf	??_set_temp+2
  3207  0354  0849               	movf	??_set_temp+2,w
  3208  0355  00B7               	movwf	set_temp@temp_arr
  3209                           
  3210                           ;main.c: 419: 
  3211  0356  300A               	movlw	10
  3212  0357  00BF               	movwf	___awmod@divisor
  3213  0358  3000               	movlw	0
  3214  0359  00C0               	movwf	___awmod@divisor+1
  3215  035A  300A               	movlw	10
  3216  035B  00F3               	movwf	___awdiv@divisor
  3217  035C  3000               	movlw	0
  3218  035D  00F4               	movwf	___awdiv@divisor+1
  3219  035E  0834               	movf	_temp,w
  3220  035F  00C7               	movwf	??_set_temp
  3221  0360  01C8               	clrf	??_set_temp+1
  3222  0361  0847               	movf	??_set_temp,w
  3223  0362  00F5               	movwf	___awdiv@dividend
  3224  0363  0848               	movf	??_set_temp+1,w
  3225  0364  00F6               	movwf	___awdiv@dividend+1
  3226  0365  120A  118A  2543  120A  118A  	fcall	___awdiv
  3227  036A  0874               	movf	?___awdiv+1,w
  3228  036B  1283               	bcf	3,5	;RP0=0, select bank0
  3229  036C  1303               	bcf	3,6	;RP1=0, select bank0
  3230  036D  00C2               	movwf	___awmod@dividend+1
  3231  036E  0873               	movf	?___awdiv,w
  3232  036F  00C1               	movwf	___awmod@dividend
  3233  0370  120A  158A  25DE  120A  118A  	fcall	___awmod
  3234  0375  1283               	bcf	3,5	;RP0=0, select bank0
  3235  0376  1303               	bcf	3,6	;RP1=0, select bank0
  3236  0377  083F               	movf	?___awmod,w
  3237  0378  3E30               	addlw	48
  3238  0379  00C9               	movwf	??_set_temp+2
  3239  037A  0849               	movf	??_set_temp+2,w
  3240  037B  00B8               	movwf	set_temp@temp_arr+1
  3241                           
  3242                           ;main.c: 420: }
  3243  037C  300A               	movlw	10
  3244  037D  00BF               	movwf	___awmod@divisor
  3245  037E  3000               	movlw	0
  3246  037F  00C0               	movwf	___awmod@divisor+1
  3247  0380  0834               	movf	_temp,w
  3248  0381  00C7               	movwf	??_set_temp
  3249  0382  01C8               	clrf	??_set_temp+1
  3250  0383  0847               	movf	??_set_temp,w
  3251  0384  00C1               	movwf	___awmod@dividend
  3252  0385  0848               	movf	??_set_temp+1,w
  3253  0386  00C2               	movwf	___awmod@dividend+1
  3254  0387  120A  158A  25DE  120A  118A  	fcall	___awmod
  3255  038C  1283               	bcf	3,5	;RP0=0, select bank0
  3256  038D  1303               	bcf	3,6	;RP1=0, select bank0
  3257  038E  083F               	movf	?___awmod,w
  3258  038F  3E30               	addlw	48
  3259  0390  00C9               	movwf	??_set_temp+2
  3260  0391  0849               	movf	??_set_temp+2,w
  3261  0392  00B9               	movwf	set_temp@temp_arr+2
  3262  0393                     l2671:
  3263  0393  01BA               	clrf	set_temp@temp_arr+3
  3264  0394                     l2673:
  3265  0394  3001               	movlw	1
  3266  0395  07A6               	addwf	set_temp@wait,f
  3267  0396  1803               	skipnc
  3268  0397  0AA7               	incf	set_temp@wait+1,f
  3269  0398  3000               	movlw	0
  3270  0399  07A7               	addwf	set_temp@wait+1,f
  3271  039A  3010               	movlw	16
  3272  039B  0626               	xorwf	set_temp@wait,w
  3273  039C  0427               	iorwf	set_temp@wait+1,w
  3274  039D  1D03               	btfss	3,2
  3275  039E  2BA0               	goto	u2451
  3276  039F  2BA1               	goto	u2450
  3277  03A0                     u2451:
  3278  03A0  2BBE               	goto	l2681
  3279  03A1                     u2450:
  3280  03A1                     l2675:
  3281  03A1  01A6               	clrf	set_temp@wait
  3282  03A2  01A7               	clrf	set_temp@wait+1
  3283  03A3                     l2677:
  3284  03A3  0824               	movf	set_temp@blink,w
  3285  03A4  0425               	iorwf	set_temp@blink+1,w
  3286  03A5  1903               	btfsc	3,2
  3287  03A6  2BA8               	goto	u2461
  3288  03A7  2BAA               	goto	u2460
  3289  03A8                     u2461:
  3290  03A8  3001               	movlw	1
  3291  03A9  2BAB               	goto	u2470
  3292  03AA                     u2460:
  3293  03AA  3000               	movlw	0
  3294  03AB                     u2470:
  3295  03AB  00C7               	movwf	??_set_temp
  3296  03AC  01C8               	clrf	??_set_temp+1
  3297  03AD  0847               	movf	??_set_temp,w
  3298  03AE  00A4               	movwf	set_temp@blink
  3299  03AF  0848               	movf	??_set_temp+1,w
  3300  03B0  00A5               	movwf	set_temp@blink+1
  3301  03B1                     l2679:
  3302  03B1  3037               	movlw	(low (set_temp@temp_arr| 0))& (0+255)
  3303  03B2  00BB               	movwf	clcd_print@str
  3304  03B3  3000               	movlw	0
  3305  03B4  00BC               	movwf	clcd_print@str+1
  3306  03B5  30C8               	movlw	200
  3307  03B6  00C7               	movwf	??_set_temp
  3308  03B7  0847               	movf	??_set_temp,w
  3309  03B8  00BD               	movwf	clcd_print@addr
  3310  03B9  120A  158A  253E  120A  118A  	fcall	_clcd_print
  3311  03BE                     l2681:
  3312  03BE  1283               	bcf	3,5	;RP0=0, select bank0
  3313  03BF  1303               	bcf	3,6	;RP1=0, select bank0
  3314  03C0  0824               	movf	set_temp@blink,w
  3315  03C1  0425               	iorwf	set_temp@blink+1,w
  3316  03C2  1903               	btfsc	3,2
  3317  03C3  2BC5               	goto	u2481
  3318  03C4  2BC6               	goto	u2480
  3319  03C5                     u2481:
  3320  03C5  2BD3               	goto	l182
  3321  03C6                     u2480:
  3322  03C6                     l2683:
  3323  03C6  300D               	movlw	low ((STR_23+13)| (0+32768))
  3324  03C7  00BB               	movwf	clcd_print@str
  3325  03C8  3086               	movlw	high ((STR_23+13)| (0+32768))
  3326  03C9  00BC               	movwf	clcd_print@str+1
  3327  03CA  30C8               	movlw	200
  3328  03CB  00C7               	movwf	??_set_temp
  3329  03CC  0847               	movf	??_set_temp,w
  3330  03CD  00BD               	movwf	clcd_print@addr
  3331  03CE  120A  158A  253E  120A  118A  	fcall	_clcd_print
  3332  03D3                     l182:
  3333  03D3  0008               	return
  3334  03D4                     __end_of_set_temp:
  3335                           
  3336                           	psect	text5
  3337  07F1                     __ptext5:	
  3338 ;; *************** function _clear_clcd *****************
  3339 ;; Defined at:
  3340 ;;		line 190 in file "main.c"
  3341 ;; Parameters:    Size  Location     Type
  3342 ;;		None
  3343 ;; Auto vars:     Size  Location     Type
  3344 ;;		None
  3345 ;; Return value:  Size  Location     Type
  3346 ;;                  1    wreg      void 
  3347 ;; Registers used:
  3348 ;;		wreg, status,2, status,0, pclath, cstack
  3349 ;; Tracked objects:
  3350 ;;		On entry : 0/0
  3351 ;;		On exit  : 0/0
  3352 ;;		Unchanged: 0/0
  3353 ;; Data sizes:     COMMON   BANK0   BANK1   BANK3   BANK2
  3354 ;;      Params:         0       0       0       0       0
  3355 ;;      Locals:         0       0       0       0       0
  3356 ;;      Temps:          1       0       0       0       0
  3357 ;;      Totals:         1       0       0       0       0
  3358 ;;Total ram usage:        1 bytes
  3359 ;; Hardware stack levels used: 1
  3360 ;; Hardware stack levels required when called: 2
  3361 ;; This function calls:
  3362 ;;		_clcd_write
  3363 ;; This function is called by:
  3364 ;;		_main
  3365 ;;		_set_time
  3366 ;;		_door_status_check
  3367 ;;		_time_display_screen
  3368 ;;		_set_temp
  3369 ;; This function uses a non-reentrant model
  3370 ;;
  3371                           
  3372                           
  3373                           ;psect for function _clear_clcd
  3374  07F1                     _clear_clcd:
  3375  07F1                     l1693:	
  3376                           ;incstack = 0
  3377                           ; Regs used in _clear_clcd: [wreg+status,2+status,0+pclath+cstack]
  3378                           
  3379                           
  3380                           ;main.c: 192:     _delay((unsigned long)((3000)*(20000000/4000.0)));
  3381  07F1  01F3               	clrf	clcd_write@mode
  3382  07F2  3001               	movlw	1
  3383  07F3  120A  158A  2571  120A  118A  	fcall	_clcd_write
  3384  07F8                     l1695:
  3385                           
  3386                           ;main.c: 193: 
  3387  07F8  30A6               	movlw	166
  3388  07F9  00F7               	movwf	??_clear_clcd
  3389  07FA                     u2727:
  3390  07FA  0BF7               	decfsz	??_clear_clcd,f
  3391  07FB  2FFA               	goto	u2727
  3392  07FC  0000               	nop
  3393  07FD                     l111:
  3394  07FD  0008               	return
  3395  07FE                     __end_of_clear_clcd:
  3396                           
  3397                           	psect	text6
  3398  05E7                     __ptext6:	
  3399 ;; *************** function ___bmul *****************
  3400 ;; Defined at:
  3401 ;;		line 4 in file "C:\Program Files\Microchip\xc8\v2.32\pic\sources\c90\common\Umul8.c"
  3402 ;; Parameters:    Size  Location     Type
  3403 ;;  multiplier      1    wreg     unsigned char 
  3404 ;;  multiplicand    1    3[COMMON] unsigned char 
  3405 ;; Auto vars:     Size  Location     Type
  3406 ;;  multiplier      1    6[COMMON] unsigned char 
  3407 ;;  product         1    5[COMMON] unsigned char 
  3408 ;; Return value:  Size  Location     Type
  3409 ;;                  1    wreg      unsigned char 
  3410 ;; Registers used:
  3411 ;;		wreg, status,2, status,0
  3412 ;; Tracked objects:
  3413 ;;		On entry : 0/0
  3414 ;;		On exit  : 0/0
  3415 ;;		Unchanged: 0/0
  3416 ;; Data sizes:     COMMON   BANK0   BANK1   BANK3   BANK2
  3417 ;;      Params:         1       0       0       0       0
  3418 ;;      Locals:         2       0       0       0       0
  3419 ;;      Temps:          1       0       0       0       0
  3420 ;;      Totals:         4       0       0       0       0
  3421 ;;Total ram usage:        4 bytes
  3422 ;; Hardware stack levels used: 1
  3423 ;; Hardware stack levels required when called: 1
  3424 ;; This function calls:
  3425 ;;		Nothing
  3426 ;; This function is called by:
  3427 ;;		_set_time
  3428 ;;		_set_temp
  3429 ;; This function uses a non-reentrant model
  3430 ;;
  3431                           
  3432                           
  3433                           ;psect for function ___bmul
  3434  05E7                     ___bmul:
  3435                           
  3436                           ;incstack = 0
  3437                           ; Regs used in ___bmul: [wreg+status,2+status,0]
  3438                           ;___bmul@multiplier stored from wreg
  3439  05E7  00F6               	movwf	___bmul@multiplier
  3440  05E8                     l1857:
  3441  05E8  01F5               	clrf	___bmul@product
  3442  05E9                     l1859:
  3443  05E9  1C76               	btfss	___bmul@multiplier,0
  3444  05EA  2DEC               	goto	u1261
  3445  05EB  2DED               	goto	u1260
  3446  05EC                     u1261:
  3447  05EC  2DF1               	goto	l1863
  3448  05ED                     u1260:
  3449  05ED                     l1861:
  3450  05ED  0873               	movf	___bmul@multiplicand,w
  3451  05EE  00F4               	movwf	??___bmul
  3452  05EF  0874               	movf	??___bmul,w
  3453  05F0  07F5               	addwf	___bmul@product,f
  3454  05F1                     l1863:
  3455  05F1  1003               	clrc
  3456  05F2  0DF3               	rlf	___bmul@multiplicand,f
  3457  05F3                     l1865:
  3458  05F3  1003               	clrc
  3459  05F4  0CF6               	rrf	___bmul@multiplier,f
  3460  05F5  0876               	movf	___bmul@multiplier,w
  3461  05F6  1D03               	btfss	3,2
  3462  05F7  2DF9               	goto	u1271
  3463  05F8  2DFA               	goto	u1270
  3464  05F9                     u1271:
  3465  05F9  2DE9               	goto	l1859
  3466  05FA                     u1270:
  3467  05FA                     l1867:
  3468  05FA  0875               	movf	___bmul@product,w
  3469  05FB                     l425:
  3470  05FB  0008               	return
  3471  05FC                     __end_of___bmul:
  3472                           
  3473                           	psect	text7
  3474  0DDE                     __ptext7:	
  3475 ;; *************** function ___awmod *****************
  3476 ;; Defined at:
  3477 ;;		line 5 in file "C:\Program Files\Microchip\xc8\v2.32\pic\sources\c90\common\awmod.c"
  3478 ;; Parameters:    Size  Location     Type
  3479 ;;  divisor         2    4[BANK0 ] int 
  3480 ;;  dividend        2    6[BANK0 ] int 
  3481 ;; Auto vars:     Size  Location     Type
  3482 ;;  sign            1    9[BANK0 ] unsigned char 
  3483 ;;  counter         1    8[BANK0 ] unsigned char 
  3484 ;; Return value:  Size  Location     Type
  3485 ;;                  2    4[BANK0 ] int 
  3486 ;; Registers used:
  3487 ;;		wreg, status,2, status,0
  3488 ;; Tracked objects:
  3489 ;;		On entry : 0/0
  3490 ;;		On exit  : 0/0
  3491 ;;		Unchanged: 0/0
  3492 ;; Data sizes:     COMMON   BANK0   BANK1   BANK3   BANK2
  3493 ;;      Params:         0       4       0       0       0
  3494 ;;      Locals:         0       2       0       0       0
  3495 ;;      Temps:          1       0       0       0       0
  3496 ;;      Totals:         1       6       0       0       0
  3497 ;;Total ram usage:        7 bytes
  3498 ;; Hardware stack levels used: 1
  3499 ;; Hardware stack levels required when called: 1
  3500 ;; This function calls:
  3501 ;;		Nothing
  3502 ;; This function is called by:
  3503 ;;		_set_time
  3504 ;;		_time_display_screen
  3505 ;;		_set_temp
  3506 ;; This function uses a non-reentrant model
  3507 ;;
  3508                           
  3509                           
  3510                           ;psect for function ___awmod
  3511  0DDE                     ___awmod:
  3512  0DDE                     l2449:	
  3513                           ;incstack = 0
  3514                           ; Regs used in ___awmod: [wreg+status,2+status,0]
  3515                           
  3516  0DDE  1283               	bcf	3,5	;RP0=0, select bank0
  3517  0DDF  1303               	bcf	3,6	;RP1=0, select bank0
  3518  0DE0  01C4               	clrf	___awmod@sign
  3519  0DE1                     l2451:
  3520  0DE1  1FC2               	btfss	___awmod@dividend+1,7
  3521  0DE2  2DE4               	goto	u2101
  3522  0DE3  2DE5               	goto	u2100
  3523  0DE4                     u2101:
  3524  0DE4  2DEC               	goto	l2457
  3525  0DE5                     u2100:
  3526  0DE5                     l2453:
  3527  0DE5  09C1               	comf	___awmod@dividend,f
  3528  0DE6  09C2               	comf	___awmod@dividend+1,f
  3529  0DE7  0AC1               	incf	___awmod@dividend,f
  3530  0DE8  1903               	skipnz
  3531  0DE9  0AC2               	incf	___awmod@dividend+1,f
  3532  0DEA                     l2455:
  3533  0DEA  01C4               	clrf	___awmod@sign
  3534  0DEB  0AC4               	incf	___awmod@sign,f
  3535  0DEC                     l2457:
  3536  0DEC  1FC0               	btfss	___awmod@divisor+1,7
  3537  0DED  2DEF               	goto	u2111
  3538  0DEE  2DF0               	goto	u2110
  3539  0DEF                     u2111:
  3540  0DEF  2DF5               	goto	l2461
  3541  0DF0                     u2110:
  3542  0DF0                     l2459:
  3543  0DF0  09BF               	comf	___awmod@divisor,f
  3544  0DF1  09C0               	comf	___awmod@divisor+1,f
  3545  0DF2  0ABF               	incf	___awmod@divisor,f
  3546  0DF3  1903               	skipnz
  3547  0DF4  0AC0               	incf	___awmod@divisor+1,f
  3548  0DF5                     l2461:
  3549  0DF5  083F               	movf	___awmod@divisor,w
  3550  0DF6  0440               	iorwf	___awmod@divisor+1,w
  3551  0DF7  1903               	btfsc	3,2
  3552  0DF8  2DFA               	goto	u2121
  3553  0DF9  2DFB               	goto	u2120
  3554  0DFA                     u2121:
  3555  0DFA  2E2A               	goto	l2479
  3556  0DFB                     u2120:
  3557  0DFB                     l2463:
  3558  0DFB  01C3               	clrf	___awmod@counter
  3559  0DFC  0AC3               	incf	___awmod@counter,f
  3560  0DFD  2E09               	goto	l2469
  3561  0DFE                     l2465:
  3562  0DFE  3001               	movlw	1
  3563  0DFF                     u2135:
  3564  0DFF  1003               	clrc
  3565  0E00  0DBF               	rlf	___awmod@divisor,f
  3566  0E01  0DC0               	rlf	___awmod@divisor+1,f
  3567  0E02  3EFF               	addlw	-1
  3568  0E03  1D03               	skipz
  3569  0E04  2DFF               	goto	u2135
  3570  0E05                     l2467:
  3571  0E05  3001               	movlw	1
  3572  0E06  00F8               	movwf	??___awmod
  3573  0E07  0878               	movf	??___awmod,w
  3574  0E08  07C3               	addwf	___awmod@counter,f
  3575  0E09                     l2469:
  3576  0E09  1FC0               	btfss	___awmod@divisor+1,7
  3577  0E0A  2E0C               	goto	u2141
  3578  0E0B  2E0D               	goto	u2140
  3579  0E0C                     u2141:
  3580  0E0C  2DFE               	goto	l2465
  3581  0E0D                     u2140:
  3582  0E0D                     l2471:
  3583  0E0D  0840               	movf	___awmod@divisor+1,w
  3584  0E0E  0242               	subwf	___awmod@dividend+1,w
  3585  0E0F  1D03               	skipz
  3586  0E10  2E13               	goto	u2155
  3587  0E11  083F               	movf	___awmod@divisor,w
  3588  0E12  0241               	subwf	___awmod@dividend,w
  3589  0E13                     u2155:
  3590  0E13  1C03               	skipc
  3591  0E14  2E16               	goto	u2151
  3592  0E15  2E17               	goto	u2150
  3593  0E16                     u2151:
  3594  0E16  2E1D               	goto	l2475
  3595  0E17                     u2150:
  3596  0E17                     l2473:
  3597  0E17  083F               	movf	___awmod@divisor,w
  3598  0E18  02C1               	subwf	___awmod@dividend,f
  3599  0E19  0840               	movf	___awmod@divisor+1,w
  3600  0E1A  1C03               	skipc
  3601  0E1B  03C2               	decf	___awmod@dividend+1,f
  3602  0E1C  02C2               	subwf	___awmod@dividend+1,f
  3603  0E1D                     l2475:
  3604  0E1D  3001               	movlw	1
  3605  0E1E                     u2165:
  3606  0E1E  1003               	clrc
  3607  0E1F  0CC0               	rrf	___awmod@divisor+1,f
  3608  0E20  0CBF               	rrf	___awmod@divisor,f
  3609  0E21  3EFF               	addlw	-1
  3610  0E22  1D03               	skipz
  3611  0E23  2E1E               	goto	u2165
  3612  0E24                     l2477:
  3613  0E24  3001               	movlw	1
  3614  0E25  02C3               	subwf	___awmod@counter,f
  3615  0E26  1D03               	btfss	3,2
  3616  0E27  2E29               	goto	u2171
  3617  0E28  2E2A               	goto	u2170
  3618  0E29                     u2171:
  3619  0E29  2E0D               	goto	l2471
  3620  0E2A                     u2170:
  3621  0E2A                     l2479:
  3622  0E2A  0844               	movf	___awmod@sign,w
  3623  0E2B  1903               	btfsc	3,2
  3624  0E2C  2E2E               	goto	u2181
  3625  0E2D  2E2F               	goto	u2180
  3626  0E2E                     u2181:
  3627  0E2E  2E34               	goto	l2483
  3628  0E2F                     u2180:
  3629  0E2F                     l2481:
  3630  0E2F  09C1               	comf	___awmod@dividend,f
  3631  0E30  09C2               	comf	___awmod@dividend+1,f
  3632  0E31  0AC1               	incf	___awmod@dividend,f
  3633  0E32  1903               	skipnz
  3634  0E33  0AC2               	incf	___awmod@dividend+1,f
  3635  0E34                     l2483:
  3636  0E34  0842               	movf	___awmod@dividend+1,w
  3637  0E35  00C0               	movwf	?___awmod+1
  3638  0E36  0841               	movf	___awmod@dividend,w
  3639  0E37  00BF               	movwf	?___awmod
  3640  0E38                     l565:
  3641  0E38  0008               	return
  3642  0E39                     __end_of___awmod:
  3643                           
  3644                           	psect	text8
  3645  0543                     __ptext8:	
  3646 ;; *************** function ___awdiv *****************
  3647 ;; Defined at:
  3648 ;;		line 5 in file "C:\Program Files\Microchip\xc8\v2.32\pic\sources\c90\common\awdiv.c"
  3649 ;; Parameters:    Size  Location     Type
  3650 ;;  divisor         2    3[COMMON] int 
  3651 ;;  dividend        2    5[COMMON] int 
  3652 ;; Auto vars:     Size  Location     Type
  3653 ;;  quotient        2    2[BANK0 ] int 
  3654 ;;  sign            1    1[BANK0 ] unsigned char 
  3655 ;;  counter         1    0[BANK0 ] unsigned char 
  3656 ;; Return value:  Size  Location     Type
  3657 ;;                  2    3[COMMON] int 
  3658 ;; Registers used:
  3659 ;;		wreg, status,2, status,0
  3660 ;; Tracked objects:
  3661 ;;		On entry : 0/0
  3662 ;;		On exit  : 0/0
  3663 ;;		Unchanged: 0/0
  3664 ;; Data sizes:     COMMON   BANK0   BANK1   BANK3   BANK2
  3665 ;;      Params:         4       0       0       0       0
  3666 ;;      Locals:         0       4       0       0       0
  3667 ;;      Temps:          1       0       0       0       0
  3668 ;;      Totals:         5       4       0       0       0
  3669 ;;Total ram usage:        9 bytes
  3670 ;; Hardware stack levels used: 1
  3671 ;; Hardware stack levels required when called: 1
  3672 ;; This function calls:
  3673 ;;		Nothing
  3674 ;; This function is called by:
  3675 ;;		_set_time
  3676 ;;		_time_display_screen
  3677 ;;		_set_temp
  3678 ;; This function uses a non-reentrant model
  3679 ;;
  3680                           
  3681                           
  3682                           ;psect for function ___awdiv
  3683  0543                     ___awdiv:
  3684  0543                     l1871:	
  3685                           ;incstack = 0
  3686                           ; Regs used in ___awdiv: [wreg+status,2+status,0]
  3687                           
  3688  0543  1283               	bcf	3,5	;RP0=0, select bank0
  3689  0544  1303               	bcf	3,6	;RP1=0, select bank0
  3690  0545  01BC               	clrf	___awdiv@sign
  3691  0546                     l1873:
  3692  0546  1FF4               	btfss	___awdiv@divisor+1,7
  3693  0547  2D49               	goto	u1281
  3694  0548  2D4A               	goto	u1280
  3695  0549                     u1281:
  3696  0549  2D51               	goto	l1879
  3697  054A                     u1280:
  3698  054A                     l1875:
  3699  054A  09F3               	comf	___awdiv@divisor,f
  3700  054B  09F4               	comf	___awdiv@divisor+1,f
  3701  054C  0AF3               	incf	___awdiv@divisor,f
  3702  054D  1903               	skipnz
  3703  054E  0AF4               	incf	___awdiv@divisor+1,f
  3704  054F                     l1877:
  3705  054F  01BC               	clrf	___awdiv@sign
  3706  0550  0ABC               	incf	___awdiv@sign,f
  3707  0551                     l1879:
  3708  0551  1FF6               	btfss	___awdiv@dividend+1,7
  3709  0552  2D54               	goto	u1291
  3710  0553  2D55               	goto	u1290
  3711  0554                     u1291:
  3712  0554  2D5E               	goto	l1885
  3713  0555                     u1290:
  3714  0555                     l1881:
  3715  0555  09F5               	comf	___awdiv@dividend,f
  3716  0556  09F6               	comf	___awdiv@dividend+1,f
  3717  0557  0AF5               	incf	___awdiv@dividend,f
  3718  0558  1903               	skipnz
  3719  0559  0AF6               	incf	___awdiv@dividend+1,f
  3720  055A                     l1883:
  3721  055A  3001               	movlw	1
  3722  055B  00F7               	movwf	??___awdiv
  3723  055C  0877               	movf	??___awdiv,w
  3724  055D  06BC               	xorwf	___awdiv@sign,f
  3725  055E                     l1885:
  3726  055E  01BD               	clrf	___awdiv@quotient
  3727  055F  01BE               	clrf	___awdiv@quotient+1
  3728  0560                     l1887:
  3729  0560  0873               	movf	___awdiv@divisor,w
  3730  0561  0474               	iorwf	___awdiv@divisor+1,w
  3731  0562  1903               	btfsc	3,2
  3732  0563  2D65               	goto	u1301
  3733  0564  2D66               	goto	u1300
  3734  0565                     u1301:
  3735  0565  2D9D               	goto	l1907
  3736  0566                     u1300:
  3737  0566                     l1889:
  3738  0566  01BB               	clrf	___awdiv@counter
  3739  0567  0ABB               	incf	___awdiv@counter,f
  3740  0568  2D74               	goto	l1895
  3741  0569                     l1891:
  3742  0569  3001               	movlw	1
  3743  056A                     u1315:
  3744  056A  1003               	clrc
  3745  056B  0DF3               	rlf	___awdiv@divisor,f
  3746  056C  0DF4               	rlf	___awdiv@divisor+1,f
  3747  056D  3EFF               	addlw	-1
  3748  056E  1D03               	skipz
  3749  056F  2D6A               	goto	u1315
  3750  0570                     l1893:
  3751  0570  3001               	movlw	1
  3752  0571  00F7               	movwf	??___awdiv
  3753  0572  0877               	movf	??___awdiv,w
  3754  0573  07BB               	addwf	___awdiv@counter,f
  3755  0574                     l1895:
  3756  0574  1FF4               	btfss	___awdiv@divisor+1,7
  3757  0575  2D77               	goto	u1321
  3758  0576  2D78               	goto	u1320
  3759  0577                     u1321:
  3760  0577  2D69               	goto	l1891
  3761  0578                     u1320:
  3762  0578                     l1897:
  3763  0578  3001               	movlw	1
  3764  0579                     u1335:
  3765  0579  1003               	clrc
  3766  057A  0DBD               	rlf	___awdiv@quotient,f
  3767  057B  0DBE               	rlf	___awdiv@quotient+1,f
  3768  057C  3EFF               	addlw	-1
  3769  057D  1D03               	skipz
  3770  057E  2D79               	goto	u1335
  3771  057F  0874               	movf	___awdiv@divisor+1,w
  3772  0580  0276               	subwf	___awdiv@dividend+1,w
  3773  0581  1D03               	skipz
  3774  0582  2D85               	goto	u1345
  3775  0583  0873               	movf	___awdiv@divisor,w
  3776  0584  0275               	subwf	___awdiv@dividend,w
  3777  0585                     u1345:
  3778  0585  1C03               	skipc
  3779  0586  2D88               	goto	u1341
  3780  0587  2D89               	goto	u1340
  3781  0588                     u1341:
  3782  0588  2D90               	goto	l1903
  3783  0589                     u1340:
  3784  0589                     l1899:
  3785  0589  0873               	movf	___awdiv@divisor,w
  3786  058A  02F5               	subwf	___awdiv@dividend,f
  3787  058B  0874               	movf	___awdiv@divisor+1,w
  3788  058C  1C03               	skipc
  3789  058D  03F6               	decf	___awdiv@dividend+1,f
  3790  058E  02F6               	subwf	___awdiv@dividend+1,f
  3791  058F                     l1901:
  3792  058F  143D               	bsf	___awdiv@quotient,0
  3793  0590                     l1903:
  3794  0590  3001               	movlw	1
  3795  0591                     u1355:
  3796  0591  1003               	clrc
  3797  0592  0CF4               	rrf	___awdiv@divisor+1,f
  3798  0593  0CF3               	rrf	___awdiv@divisor,f
  3799  0594  3EFF               	addlw	-1
  3800  0595  1D03               	skipz
  3801  0596  2D91               	goto	u1355
  3802  0597                     l1905:
  3803  0597  3001               	movlw	1
  3804  0598  02BB               	subwf	___awdiv@counter,f
  3805  0599  1D03               	btfss	3,2
  3806  059A  2D9C               	goto	u1361
  3807  059B  2D9D               	goto	u1360
  3808  059C                     u1361:
  3809  059C  2D78               	goto	l1897
  3810  059D                     u1360:
  3811  059D                     l1907:
  3812  059D  083C               	movf	___awdiv@sign,w
  3813  059E  1903               	btfsc	3,2
  3814  059F  2DA1               	goto	u1371
  3815  05A0  2DA2               	goto	u1370
  3816  05A1                     u1371:
  3817  05A1  2DA7               	goto	l1911
  3818  05A2                     u1370:
  3819  05A2                     l1909:
  3820  05A2  09BD               	comf	___awdiv@quotient,f
  3821  05A3  09BE               	comf	___awdiv@quotient+1,f
  3822  05A4  0ABD               	incf	___awdiv@quotient,f
  3823  05A5  1903               	skipnz
  3824  05A6  0ABE               	incf	___awdiv@quotient+1,f
  3825  05A7                     l1911:
  3826  05A7  083E               	movf	___awdiv@quotient+1,w
  3827  05A8  00F4               	movwf	?___awdiv+1
  3828  05A9  083D               	movf	___awdiv@quotient,w
  3829  05AA  00F3               	movwf	?___awdiv
  3830  05AB                     l552:
  3831  05AB  0008               	return
  3832  05AC                     __end_of___awdiv:
  3833                           
  3834                           	psect	text9
  3835  0D19                     __ptext9:	
  3836 ;; *************** function _read_matrix_keypad *****************
  3837 ;; Defined at:
  3838 ;;		line 108 in file "matrix_keypad.c"
  3839 ;; Parameters:    Size  Location     Type
  3840 ;;  mode            1    wreg     unsigned char 
  3841 ;; Auto vars:     Size  Location     Type
  3842 ;;  mode            1    6[COMMON] unsigned char 
  3843 ;;  key             1    7[COMMON] unsigned char 
  3844 ;; Return value:  Size  Location     Type
  3845 ;;                  1    wreg      unsigned char 
  3846 ;; Registers used:
  3847 ;;		wreg, status,2, status,0, pclath, cstack
  3848 ;; Tracked objects:
  3849 ;;		On entry : 0/0
  3850 ;;		On exit  : 0/0
  3851 ;;		Unchanged: 0/0
  3852 ;; Data sizes:     COMMON   BANK0   BANK1   BANK3   BANK2
  3853 ;;      Params:         0       0       0       0       0
  3854 ;;      Locals:         2       0       0       0       0
  3855 ;;      Temps:          1       0       0       0       0
  3856 ;;      Totals:         3       0       0       0       0
  3857 ;;Total ram usage:        3 bytes
  3858 ;; Hardware stack levels used: 1
  3859 ;; Hardware stack levels required when called: 2
  3860 ;; This function calls:
  3861 ;;		_scan_keypad
  3862 ;; This function is called by:
  3863 ;;		_main
  3864 ;; This function uses a non-reentrant model
  3865 ;;
  3866                           
  3867                           
  3868                           ;psect for function _read_matrix_keypad
  3869  0D19                     _read_matrix_keypad:
  3870                           
  3871                           ;incstack = 0
  3872                           ; Regs used in _read_matrix_keypad: [wreg+status,2+status,0+pclath+cstack]
  3873                           ;read_matrix_keypad@mode stored from wreg
  3874  0D19  00F6               	movwf	read_matrix_keypad@mode
  3875  0D1A                     l1997:
  3876                           
  3877                           ;matrix_keypad.c: 108: unsigned char read_matrix_keypad(unsigned char mode);matrix_keypa
      +                          d.c: 109: {;matrix_keypad.c: 110:     static unsigned char once = 1;;matrix_keypad.c: 11
      +                          1:     unsigned char key;;matrix_keypad.c: 113:     key = scan_keypad();
  3878  0D1A  120A  118A  2708  120A  158A  	fcall	_scan_keypad
  3879  0D1F  00F5               	movwf	??_read_matrix_keypad
  3880  0D20  0875               	movf	??_read_matrix_keypad,w
  3881  0D21  00F7               	movwf	read_matrix_keypad@key
  3882  0D22                     l1999:
  3883                           
  3884                           ;matrix_keypad.c: 116:     if (mode == 0)
  3885  0D22  0876               	movf	read_matrix_keypad@mode,w
  3886  0D23  1D03               	btfss	3,2
  3887  0D24  2D26               	goto	u1491
  3888  0D25  2D27               	goto	u1490
  3889  0D26                     u1491:
  3890  0D26  2D29               	goto	l2007
  3891  0D27                     u1490:
  3892  0D27                     l2001:
  3893                           
  3894                           ;matrix_keypad.c: 117:     {;matrix_keypad.c: 118:         return key;
  3895  0D27  0877               	movf	read_matrix_keypad@key,w
  3896  0D28  2D3D               	goto	l278
  3897  0D29                     l2007:
  3898                           
  3899                           ;matrix_keypad.c: 121:     {;matrix_keypad.c: 122:         if ((key != 0xFF) && once)
  3900  0D29  0A77               	incf	read_matrix_keypad@key,w
  3901  0D2A  1903               	btfsc	3,2
  3902  0D2B  2D2D               	goto	u1501
  3903  0D2C  2D2E               	goto	u1500
  3904  0D2D                     u1501:
  3905  0D2D  2D35               	goto	l2019
  3906  0D2E                     u1500:
  3907  0D2E                     l2009:
  3908  0D2E  087A               	movf	read_matrix_keypad@once,w
  3909  0D2F  1903               	btfsc	3,2
  3910  0D30  2D32               	goto	u1511
  3911  0D31  2D33               	goto	u1510
  3912  0D32                     u1511:
  3913  0D32  2D35               	goto	l2019
  3914  0D33                     u1510:
  3915  0D33                     l2011:
  3916                           
  3917                           ;matrix_keypad.c: 123:         {;matrix_keypad.c: 124:             once = 0;
  3918  0D33  01FA               	clrf	read_matrix_keypad@once
  3919  0D34  2D27               	goto	l2001
  3920  0D35                     l2019:
  3921  0D35  0A77               	incf	read_matrix_keypad@key,w
  3922  0D36  1D03               	btfss	3,2
  3923  0D37  2D39               	goto	u1521
  3924  0D38  2D3A               	goto	u1520
  3925  0D39                     u1521:
  3926  0D39  2D3C               	goto	l2023
  3927  0D3A                     u1520:
  3928  0D3A                     l2021:
  3929                           
  3930                           ;matrix_keypad.c: 129:         {;matrix_keypad.c: 130:             once = 1;
  3931  0D3A  01FA               	clrf	read_matrix_keypad@once
  3932  0D3B  0AFA               	incf	read_matrix_keypad@once,f
  3933  0D3C                     l2023:
  3934                           
  3935                           ;matrix_keypad.c: 134:     return 0xFF;
  3936  0D3C  30FF               	movlw	255
  3937  0D3D                     l278:
  3938  0D3D  0008               	return
  3939  0D3E                     __end_of_read_matrix_keypad:
  3940                           
  3941                           	psect	text10
  3942  0708                     __ptext10:	
  3943 ;; *************** function _scan_keypad *****************
  3944 ;; Defined at:
  3945 ;;		line 21 in file "matrix_keypad.c"
  3946 ;; Parameters:    Size  Location     Type
  3947 ;;		None
  3948 ;; Auto vars:     Size  Location     Type
  3949 ;;  i               2    3[COMMON] int 
  3950 ;; Return value:  Size  Location     Type
  3951 ;;                  1    wreg      unsigned char 
  3952 ;; Registers used:
  3953 ;;		wreg, status,2, status,0
  3954 ;; Tracked objects:
  3955 ;;		On entry : 0/0
  3956 ;;		On exit  : 0/0
  3957 ;;		Unchanged: 0/0
  3958 ;; Data sizes:     COMMON   BANK0   BANK1   BANK3   BANK2
  3959 ;;      Params:         0       0       0       0       0
  3960 ;;      Locals:         2       0       0       0       0
  3961 ;;      Temps:          0       0       0       0       0
  3962 ;;      Totals:         2       0       0       0       0
  3963 ;;Total ram usage:        2 bytes
  3964 ;; Hardware stack levels used: 1
  3965 ;; Hardware stack levels required when called: 1
  3966 ;; This function calls:
  3967 ;;		Nothing
  3968 ;; This function is called by:
  3969 ;;		_read_matrix_keypad
  3970 ;; This function uses a non-reentrant model
  3971 ;;
  3972                           
  3973                           
  3974                           ;psect for function _scan_keypad
  3975  0708                     _scan_keypad:
  3976  0708                     l1771:	
  3977                           ;incstack = 0
  3978                           ; Regs used in _scan_keypad: [wreg+status,2+status,0]
  3979                           
  3980                           
  3981                           ;matrix_keypad.c: 23:     int i;;matrix_keypad.c: 25:     RD3 = 0;
  3982  0708  1283               	bcf	3,5	;RP0=0, select bank0
  3983  0709  1303               	bcf	3,6	;RP1=0, select bank0
  3984  070A  1188               	bcf	8,3	;volatile
  3985                           
  3986                           ;matrix_keypad.c: 26:     RD2 = 1;
  3987  070B  1508               	bsf	8,2	;volatile
  3988                           
  3989                           ;matrix_keypad.c: 27:     RD1 = 1;
  3990  070C  1488               	bsf	8,1	;volatile
  3991                           
  3992                           ;matrix_keypad.c: 28:     RD0 = 1;
  3993  070D  1408               	bsf	8,0	;volatile
  3994  070E                     l1773:
  3995                           
  3996                           ;matrix_keypad.c: 30:     for (i = 100; i--; );
  3997  070E  3064               	movlw	100
  3998  070F  00F3               	movwf	scan_keypad@i
  3999  0710  3000               	movlw	0
  4000  0711  00F4               	movwf	scan_keypad@i+1
  4001  0712                     l1775:
  4002  0712  30FF               	movlw	255
  4003  0713  07F3               	addwf	scan_keypad@i,f
  4004  0714  1803               	skipnc
  4005  0715  0AF4               	incf	scan_keypad@i+1,f
  4006  0716  30FF               	movlw	255
  4007  0717  07F4               	addwf	scan_keypad@i+1,f
  4008  0718  0A73               	incf	scan_keypad@i,w
  4009  0719  1D03               	skipz
  4010  071A  2F1F               	goto	u1101
  4011  071B  0A74               	incf	scan_keypad@i+1,w
  4012  071C  1D03               	btfss	3,2
  4013  071D  2F1F               	goto	u1101
  4014  071E  2F20               	goto	u1100
  4015  071F                     u1101:
  4016  071F  2F12               	goto	l1775
  4017  0720                     u1100:
  4018  0720                     l242:
  4019                           
  4020                           ;matrix_keypad.c: 32:     if (RB0 == 0)
  4021  0720  1283               	bcf	3,5	;RP0=0, select bank0
  4022  0721  1303               	bcf	3,6	;RP1=0, select bank0
  4023  0722  1806               	btfsc	6,0	;volatile
  4024  0723  2F25               	goto	u1111
  4025  0724  2F26               	goto	u1110
  4026  0725                     u1111:
  4027  0725  2F28               	goto	l243
  4028  0726                     u1110:
  4029  0726                     l1777:
  4030                           
  4031                           ;matrix_keypad.c: 33:     {;matrix_keypad.c: 34:         return 1;
  4032  0726  3001               	movlw	1
  4033  0727  2FB3               	goto	l244
  4034  0728                     l243:	
  4035                           ;matrix_keypad.c: 36:     else if (RB1 == 0)
  4036                           
  4037  0728  1886               	btfsc	6,1	;volatile
  4038  0729  2F2B               	goto	u1121
  4039  072A  2F2C               	goto	u1120
  4040  072B                     u1121:
  4041  072B  2F2E               	goto	l246
  4042  072C                     u1120:
  4043  072C                     l1783:
  4044                           
  4045                           ;matrix_keypad.c: 37:     {;matrix_keypad.c: 38:         return 2;
  4046  072C  3002               	movlw	2
  4047  072D  2FB3               	goto	l244
  4048  072E                     l246:	
  4049                           ;matrix_keypad.c: 40:     else if (RB2 == 0)
  4050                           
  4051  072E  1906               	btfsc	6,2	;volatile
  4052  072F  2F31               	goto	u1131
  4053  0730  2F32               	goto	u1130
  4054  0731                     u1131:
  4055  0731  2F34               	goto	l245
  4056  0732                     u1130:
  4057  0732                     l1789:
  4058                           
  4059                           ;matrix_keypad.c: 41:     {;matrix_keypad.c: 42:         return 3;
  4060  0732  3003               	movlw	3
  4061  0733  2FB3               	goto	l244
  4062  0734                     l245:
  4063                           
  4064                           ;matrix_keypad.c: 45:     RD3 = 1;
  4065  0734  1588               	bsf	8,3	;volatile
  4066                           
  4067                           ;matrix_keypad.c: 46:     RD2 = 0;
  4068  0735  1108               	bcf	8,2	;volatile
  4069                           
  4070                           ;matrix_keypad.c: 47:     RD1 = 1;
  4071  0736  1488               	bsf	8,1	;volatile
  4072                           
  4073                           ;matrix_keypad.c: 48:     RD0 = 1;
  4074  0737  1408               	bsf	8,0	;volatile
  4075  0738                     l1793:
  4076                           
  4077                           ;matrix_keypad.c: 50:     for (i = 100; i--; );
  4078  0738  3064               	movlw	100
  4079  0739  00F3               	movwf	scan_keypad@i
  4080  073A  3000               	movlw	0
  4081  073B  00F4               	movwf	scan_keypad@i+1
  4082  073C                     l1795:
  4083  073C  30FF               	movlw	255
  4084  073D  07F3               	addwf	scan_keypad@i,f
  4085  073E  1803               	skipnc
  4086  073F  0AF4               	incf	scan_keypad@i+1,f
  4087  0740  30FF               	movlw	255
  4088  0741  07F4               	addwf	scan_keypad@i+1,f
  4089  0742  0A73               	incf	scan_keypad@i,w
  4090  0743  1D03               	skipz
  4091  0744  2F49               	goto	u1141
  4092  0745  0A74               	incf	scan_keypad@i+1,w
  4093  0746  1D03               	btfss	3,2
  4094  0747  2F49               	goto	u1141
  4095  0748  2F4A               	goto	u1140
  4096  0749                     u1141:
  4097  0749  2F3C               	goto	l1795
  4098  074A                     u1140:
  4099  074A                     l251:
  4100                           
  4101                           ;matrix_keypad.c: 52:     if (RB0 == 0)
  4102  074A  1283               	bcf	3,5	;RP0=0, select bank0
  4103  074B  1303               	bcf	3,6	;RP1=0, select bank0
  4104  074C  1806               	btfsc	6,0	;volatile
  4105  074D  2F4F               	goto	u1151
  4106  074E  2F50               	goto	u1150
  4107  074F                     u1151:
  4108  074F  2F52               	goto	l252
  4109  0750                     u1150:
  4110  0750                     l1797:
  4111                           
  4112                           ;matrix_keypad.c: 53:     {;matrix_keypad.c: 54:         return 4;
  4113  0750  3004               	movlw	4
  4114  0751  2FB3               	goto	l244
  4115  0752                     l252:	
  4116                           ;matrix_keypad.c: 56:     else if (RB1 == 0)
  4117                           
  4118  0752  1886               	btfsc	6,1	;volatile
  4119  0753  2F55               	goto	u1161
  4120  0754  2F56               	goto	u1160
  4121  0755                     u1161:
  4122  0755  2F58               	goto	l254
  4123  0756                     u1160:
  4124  0756                     l1803:
  4125                           
  4126                           ;matrix_keypad.c: 57:     {;matrix_keypad.c: 58:         return 5;
  4127  0756  3005               	movlw	5
  4128  0757  2FB3               	goto	l244
  4129  0758                     l254:	
  4130                           ;matrix_keypad.c: 60:     else if (RB2 == 0)
  4131                           
  4132  0758  1906               	btfsc	6,2	;volatile
  4133  0759  2F5B               	goto	u1171
  4134  075A  2F5C               	goto	u1170
  4135  075B                     u1171:
  4136  075B  2F5E               	goto	l253
  4137  075C                     u1170:
  4138  075C                     l1809:
  4139                           
  4140                           ;matrix_keypad.c: 61:     {;matrix_keypad.c: 62:         return 6;
  4141  075C  3006               	movlw	6
  4142  075D  2FB3               	goto	l244
  4143  075E                     l253:
  4144                           
  4145                           ;matrix_keypad.c: 65:     RD3 = 1;
  4146  075E  1588               	bsf	8,3	;volatile
  4147                           
  4148                           ;matrix_keypad.c: 66:     RD2 = 1;
  4149  075F  1508               	bsf	8,2	;volatile
  4150                           
  4151                           ;matrix_keypad.c: 67:     RD1 = 0;
  4152  0760  1088               	bcf	8,1	;volatile
  4153                           
  4154                           ;matrix_keypad.c: 68:     RD0 = 1;
  4155  0761  1408               	bsf	8,0	;volatile
  4156  0762                     l1813:
  4157                           
  4158                           ;matrix_keypad.c: 70:     for (i = 100; i--; );
  4159  0762  3064               	movlw	100
  4160  0763  00F3               	movwf	scan_keypad@i
  4161  0764  3000               	movlw	0
  4162  0765  00F4               	movwf	scan_keypad@i+1
  4163  0766                     l1815:
  4164  0766  30FF               	movlw	255
  4165  0767  07F3               	addwf	scan_keypad@i,f
  4166  0768  1803               	skipnc
  4167  0769  0AF4               	incf	scan_keypad@i+1,f
  4168  076A  30FF               	movlw	255
  4169  076B  07F4               	addwf	scan_keypad@i+1,f
  4170  076C  0A73               	incf	scan_keypad@i,w
  4171  076D  1D03               	skipz
  4172  076E  2F73               	goto	u1181
  4173  076F  0A74               	incf	scan_keypad@i+1,w
  4174  0770  1D03               	btfss	3,2
  4175  0771  2F73               	goto	u1181
  4176  0772  2F74               	goto	u1180
  4177  0773                     u1181:
  4178  0773  2F66               	goto	l1815
  4179  0774                     u1180:
  4180  0774                     l259:
  4181                           
  4182                           ;matrix_keypad.c: 72:     if (RB0 == 0)
  4183  0774  1283               	bcf	3,5	;RP0=0, select bank0
  4184  0775  1303               	bcf	3,6	;RP1=0, select bank0
  4185  0776  1806               	btfsc	6,0	;volatile
  4186  0777  2F79               	goto	u1191
  4187  0778  2F7A               	goto	u1190
  4188  0779                     u1191:
  4189  0779  2F7C               	goto	l260
  4190  077A                     u1190:
  4191  077A                     l1817:
  4192                           
  4193                           ;matrix_keypad.c: 73:     {;matrix_keypad.c: 74:         return 7;
  4194  077A  3007               	movlw	7
  4195  077B  2FB3               	goto	l244
  4196  077C                     l260:	
  4197                           ;matrix_keypad.c: 76:     else if (RB1 == 0)
  4198                           
  4199  077C  1886               	btfsc	6,1	;volatile
  4200  077D  2F7F               	goto	u1201
  4201  077E  2F80               	goto	u1200
  4202  077F                     u1201:
  4203  077F  2F82               	goto	l262
  4204  0780                     u1200:
  4205  0780                     l1823:
  4206                           
  4207                           ;matrix_keypad.c: 77:     {;matrix_keypad.c: 78:         return 8;
  4208  0780  3008               	movlw	8
  4209  0781  2FB3               	goto	l244
  4210  0782                     l262:	
  4211                           ;matrix_keypad.c: 80:     else if (RB2 == 0)
  4212                           
  4213  0782  1906               	btfsc	6,2	;volatile
  4214  0783  2F85               	goto	u1211
  4215  0784  2F86               	goto	u1210
  4216  0785                     u1211:
  4217  0785  2F88               	goto	l261
  4218  0786                     u1210:
  4219  0786                     l1829:
  4220                           
  4221                           ;matrix_keypad.c: 81:     {;matrix_keypad.c: 82:         return 9;
  4222  0786  3009               	movlw	9
  4223  0787  2FB3               	goto	l244
  4224  0788                     l261:
  4225                           
  4226                           ;matrix_keypad.c: 85:     RD3 = 1;
  4227  0788  1588               	bsf	8,3	;volatile
  4228                           
  4229                           ;matrix_keypad.c: 86:     RD2 = 1;
  4230  0789  1508               	bsf	8,2	;volatile
  4231                           
  4232                           ;matrix_keypad.c: 87:     RD1 = 1;
  4233  078A  1488               	bsf	8,1	;volatile
  4234                           
  4235                           ;matrix_keypad.c: 88:     RD0 = 0;
  4236  078B  1008               	bcf	8,0	;volatile
  4237  078C                     l1833:
  4238                           
  4239                           ;matrix_keypad.c: 90:     for (i = 100; i--; );
  4240  078C  3064               	movlw	100
  4241  078D  00F3               	movwf	scan_keypad@i
  4242  078E  3000               	movlw	0
  4243  078F  00F4               	movwf	scan_keypad@i+1
  4244  0790                     l1835:
  4245  0790  30FF               	movlw	255
  4246  0791  07F3               	addwf	scan_keypad@i,f
  4247  0792  1803               	skipnc
  4248  0793  0AF4               	incf	scan_keypad@i+1,f
  4249  0794  30FF               	movlw	255
  4250  0795  07F4               	addwf	scan_keypad@i+1,f
  4251  0796  0A73               	incf	scan_keypad@i,w
  4252  0797  1D03               	skipz
  4253  0798  2F9D               	goto	u1221
  4254  0799  0A74               	incf	scan_keypad@i+1,w
  4255  079A  1D03               	btfss	3,2
  4256  079B  2F9D               	goto	u1221
  4257  079C  2F9E               	goto	u1220
  4258  079D                     u1221:
  4259  079D  2F90               	goto	l1835
  4260  079E                     u1220:
  4261  079E                     l267:
  4262                           
  4263                           ;matrix_keypad.c: 92:     if (RB0 == 0)
  4264  079E  1283               	bcf	3,5	;RP0=0, select bank0
  4265  079F  1303               	bcf	3,6	;RP1=0, select bank0
  4266  07A0  1806               	btfsc	6,0	;volatile
  4267  07A1  2FA3               	goto	u1231
  4268  07A2  2FA4               	goto	u1230
  4269  07A3                     u1231:
  4270  07A3  2FA6               	goto	l268
  4271  07A4                     u1230:
  4272  07A4                     l1837:
  4273                           
  4274                           ;matrix_keypad.c: 93:     {;matrix_keypad.c: 94:         return '*';
  4275  07A4  302A               	movlw	42
  4276  07A5  2FB3               	goto	l244
  4277  07A6                     l268:	
  4278                           ;matrix_keypad.c: 96:     else if (RB1 == 0)
  4279                           
  4280  07A6  1886               	btfsc	6,1	;volatile
  4281  07A7  2FA9               	goto	u1241
  4282  07A8  2FAA               	goto	u1240
  4283  07A9                     u1241:
  4284  07A9  2FAC               	goto	l270
  4285  07AA                     u1240:
  4286  07AA                     l1843:
  4287                           
  4288                           ;matrix_keypad.c: 97:     {;matrix_keypad.c: 98:         return 0;
  4289  07AA  3000               	movlw	0
  4290  07AB  2FB3               	goto	l244
  4291  07AC                     l270:	
  4292                           ;matrix_keypad.c: 100:     else if (RB2 == 0)
  4293                           
  4294  07AC  1906               	btfsc	6,2	;volatile
  4295  07AD  2FAF               	goto	u1251
  4296  07AE  2FB0               	goto	u1250
  4297  07AF                     u1251:
  4298  07AF  2FB2               	goto	l1853
  4299  07B0                     u1250:
  4300  07B0                     l1849:
  4301                           
  4302                           ;matrix_keypad.c: 101:     {;matrix_keypad.c: 102:         return '#';
  4303  07B0  3023               	movlw	35
  4304  07B1  2FB3               	goto	l244
  4305  07B2                     l1853:
  4306                           
  4307                           ;matrix_keypad.c: 105:     return 0xFF;
  4308  07B2  30FF               	movlw	255
  4309  07B3                     l244:
  4310  07B3  0008               	return
  4311  07B4                     __end_of_scan_keypad:
  4312                           
  4313                           	psect	text11
  4314  0E39                     __ptext11:	
  4315 ;; *************** function _power_on_screen *****************
  4316 ;; Defined at:
  4317 ;;		line 195 in file "main.c"
  4318 ;; Parameters:    Size  Location     Type
  4319 ;;		None
  4320 ;; Auto vars:     Size  Location     Type
  4321 ;;  i               1   16[BANK0 ] unsigned char 
  4322 ;;  i               1   15[BANK0 ] unsigned char 
  4323 ;; Return value:  Size  Location     Type
  4324 ;;                  1    wreg      void 
  4325 ;; Registers used:
  4326 ;;		wreg, fsr0l, fsr0h, status,2, status,0, btemp+1, pclath, cstack
  4327 ;; Tracked objects:
  4328 ;;		On entry : 0/0
  4329 ;;		On exit  : 0/0
  4330 ;;		Unchanged: 0/0
  4331 ;; Data sizes:     COMMON   BANK0   BANK1   BANK3   BANK2
  4332 ;;      Params:         0       0       0       0       0
  4333 ;;      Locals:         0       2       0       0       0
  4334 ;;      Temps:          0       3       0       0       0
  4335 ;;      Totals:         0       5       0       0       0
  4336 ;;Total ram usage:        5 bytes
  4337 ;; Hardware stack levels used: 1
  4338 ;; Hardware stack levels required when called: 3
  4339 ;; This function calls:
  4340 ;;		_clcd_print
  4341 ;;		_clcd_putch
  4342 ;; This function is called by:
  4343 ;;		_main
  4344 ;; This function uses a non-reentrant model
  4345 ;;
  4346                           
  4347                           
  4348                           ;psect for function _power_on_screen
  4349  0E39                     _power_on_screen:
  4350  0E39                     l2487:	
  4351                           ;incstack = 0
  4352                           ; Regs used in _power_on_screen: [wreg-fsr0h+status,2+status,0+btemp+1+pclath+cstack]
  4353                           
  4354                           
  4355                           ;main.c: 197:     clcd_print("1.Micro", (0x80 + 0));
  4356  0E39  1283               	bcf	3,5	;RP0=0, select bank0
  4357  0E3A  1303               	bcf	3,6	;RP1=0, select bank0
  4358  0E3B  01CA               	clrf	power_on_screen@i
  4359  0E3C                     l2493:
  4360                           
  4361                           ;main.c: 198:     clcd_print("2.Grill", (0xC0 + 0));;main.c: 199:     clcd_print("3.Conv
      +                          ection", (0x90 + 0));
  4362  0E3C  084A               	movf	power_on_screen@i,w
  4363  0E3D  3E80               	addlw	128
  4364  0E3E  00C7               	movwf	??_power_on_screen
  4365  0E3F  0847               	movf	??_power_on_screen,w
  4366  0E40  00C5               	movwf	clcd_putch@addr
  4367  0E41  30FF               	movlw	255
  4368  0E42  120A  158A  24E3  120A  158A  	fcall	_clcd_putch
  4369  0E47                     l2495:
  4370                           
  4371                           ;main.c: 200:     clcd_print("4.Start", (0xD0 + 0));
  4372  0E47  3001               	movlw	1
  4373  0E48  1283               	bcf	3,5	;RP0=0, select bank0
  4374  0E49  1303               	bcf	3,6	;RP1=0, select bank0
  4375  0E4A  00C7               	movwf	??_power_on_screen
  4376  0E4B  0847               	movf	??_power_on_screen,w
  4377  0E4C  07CA               	addwf	power_on_screen@i,f
  4378  0E4D                     l2497:
  4379  0E4D  3010               	movlw	16
  4380  0E4E  024A               	subwf	power_on_screen@i,w
  4381  0E4F  1C03               	skipc
  4382  0E50  2E52               	goto	u2191
  4383  0E51  2E53               	goto	u2190
  4384  0E52                     u2191:
  4385  0E52  2E3C               	goto	l2493
  4386  0E53                     u2190:
  4387  0E53                     l2499:
  4388                           
  4389                           ;main.c: 202: }
  4390  0E53  3011               	movlw	low (STR_2| (0+32768))
  4391  0E54  00BB               	movwf	clcd_print@str
  4392  0E55  3086               	movlw	high (STR_2| (0+32768))
  4393  0E56  00BC               	movwf	clcd_print@str+1
  4394  0E57  30C0               	movlw	192
  4395  0E58  00C7               	movwf	??_power_on_screen
  4396  0E59  0847               	movf	??_power_on_screen,w
  4397  0E5A  00BD               	movwf	clcd_print@addr
  4398  0E5B  120A  158A  253E  120A  158A  	fcall	_clcd_print
  4399                           
  4400                           ;main.c: 203: 
  4401  0E60  3033               	movlw	low (STR_3| (0+32768))
  4402  0E61  1283               	bcf	3,5	;RP0=0, select bank0
  4403  0E62  1303               	bcf	3,6	;RP1=0, select bank0
  4404  0E63  00BB               	movwf	clcd_print@str
  4405  0E64  3086               	movlw	high (STR_3| (0+32768))
  4406  0E65  00BC               	movwf	clcd_print@str+1
  4407  0E66  3090               	movlw	144
  4408  0E67  00C7               	movwf	??_power_on_screen
  4409  0E68  0847               	movf	??_power_on_screen,w
  4410  0E69  00BD               	movwf	clcd_print@addr
  4411  0E6A  120A  158A  253E  120A  158A  	fcall	_clcd_print
  4412  0E6F                     l2501:
  4413                           
  4414                           ;main.c: 204: void set_time(unsigned char key)
  4415  0E6F  1283               	bcf	3,5	;RP0=0, select bank0
  4416  0E70  1303               	bcf	3,6	;RP1=0, select bank0
  4417  0E71  01CB               	clrf	power_on_screen@i_120
  4418  0E72                     l2507:
  4419                           
  4420                           ;main.c: 205: {;main.c: 206: 
  4421  0E72  084B               	movf	power_on_screen@i_120,w
  4422  0E73  3ED0               	addlw	208
  4423  0E74  00C7               	movwf	??_power_on_screen
  4424  0E75  0847               	movf	??_power_on_screen,w
  4425  0E76  00C5               	movwf	clcd_putch@addr
  4426  0E77  30FF               	movlw	255
  4427  0E78  120A  158A  24E3  120A  158A  	fcall	_clcd_putch
  4428  0E7D                     l2509:
  4429                           
  4430                           ;main.c: 207:     static int wait , blink, key_count,blink_pos ;
  4431  0E7D  3001               	movlw	1
  4432  0E7E  1283               	bcf	3,5	;RP0=0, select bank0
  4433  0E7F  1303               	bcf	3,6	;RP1=0, select bank0
  4434  0E80  00C7               	movwf	??_power_on_screen
  4435  0E81  0847               	movf	??_power_on_screen,w
  4436  0E82  07CB               	addwf	power_on_screen@i_120,f
  4437  0E83                     l2511:
  4438  0E83  3010               	movlw	16
  4439  0E84  024B               	subwf	power_on_screen@i_120,w
  4440  0E85  1C03               	skipc
  4441  0E86  2E88               	goto	u2201
  4442  0E87  2E89               	goto	u2200
  4443  0E88                     u2201:
  4444  0E88  2E72               	goto	l2507
  4445  0E89                     u2200:
  4446  0E89                     l2513:
  4447                           
  4448                           ;main.c: 209:     {
  4449  0E89  304D               	movlw	77
  4450  0E8A  1283               	bcf	3,5	;RP0=0, select bank0
  4451  0E8B  1303               	bcf	3,6	;RP1=0, select bank0
  4452  0E8C  00C9               	movwf	??_power_on_screen+2
  4453  0E8D  3019               	movlw	25
  4454  0E8E  00C8               	movwf	??_power_on_screen+1
  4455  0E8F  304F               	movlw	79
  4456  0E90  00C7               	movwf	??_power_on_screen
  4457  0E91                     u2737:
  4458  0E91  0BC7               	decfsz	??_power_on_screen,f
  4459  0E92  2E91               	goto	u2737
  4460  0E93  0BC8               	decfsz	??_power_on_screen+1,f
  4461  0E94  2E91               	goto	u2737
  4462  0E95  0BC9               	decfsz	??_power_on_screen+2,f
  4463  0E96  2E91               	goto	u2737
  4464  0E97                     l118:
  4465  0E97  0008               	return
  4466  0E98                     __end_of_power_on_screen:
  4467                           
  4468                           	psect	text12
  4469  0CE3                     __ptext12:	
  4470 ;; *************** function _clcd_putch *****************
  4471 ;; Defined at:
  4472 ;;		line 56 in file "clcd.c"
  4473 ;; Parameters:    Size  Location     Type
  4474 ;;  data            1    wreg     const unsigned char 
  4475 ;;  addr            1   10[BANK0 ] unsigned char 
  4476 ;; Auto vars:     Size  Location     Type
  4477 ;;  data            1   11[BANK0 ] const unsigned char 
  4478 ;; Return value:  Size  Location     Type
  4479 ;;                  1    wreg      void 
  4480 ;; Registers used:
  4481 ;;		wreg, status,2, status,0, pclath, cstack
  4482 ;; Tracked objects:
  4483 ;;		On entry : 0/0
  4484 ;;		On exit  : 0/0
  4485 ;;		Unchanged: 0/0
  4486 ;; Data sizes:     COMMON   BANK0   BANK1   BANK3   BANK2
  4487 ;;      Params:         0       1       0       0       0
  4488 ;;      Locals:         0       1       0       0       0
  4489 ;;      Temps:          0       0       0       0       0
  4490 ;;      Totals:         0       2       0       0       0
  4491 ;;Total ram usage:        2 bytes
  4492 ;; Hardware stack levels used: 1
  4493 ;; Hardware stack levels required when called: 2
  4494 ;; This function calls:
  4495 ;;		_clcd_write
  4496 ;; This function is called by:
  4497 ;;		_power_on_screen
  4498 ;;		_set_time
  4499 ;;		_time_display_screen
  4500 ;;		_set_temp
  4501 ;; This function uses a non-reentrant model
  4502 ;;
  4503                           
  4504                           
  4505                           ;psect for function _clcd_putch
  4506  0CE3                     _clcd_putch:
  4507                           
  4508                           ;incstack = 0
  4509                           ; Regs used in _clcd_putch: [wreg+status,2+status,0+pclath+cstack]
  4510                           ;clcd_putch@data stored from wreg
  4511  0CE3  1283               	bcf	3,5	;RP0=0, select bank0
  4512  0CE4  1303               	bcf	3,6	;RP1=0, select bank0
  4513  0CE5  00C6               	movwf	clcd_putch@data
  4514  0CE6                     l1757:
  4515                           
  4516                           ;clcd.c: 56: void clcd_putch(const char data, unsigned char addr);clcd.c: 57: {;clcd.c: 
      +                          58:     clcd_write(addr, 0);
  4517  0CE6  01F3               	clrf	clcd_write@mode
  4518  0CE7  0845               	movf	clcd_putch@addr,w
  4519  0CE8  120A  158A  2571  120A  158A  	fcall	_clcd_write
  4520                           
  4521                           ;clcd.c: 59:     clcd_write(data, 1);
  4522  0CED  01F3               	clrf	clcd_write@mode
  4523  0CEE  0AF3               	incf	clcd_write@mode,f
  4524  0CEF  1283               	bcf	3,5	;RP0=0, select bank0
  4525  0CF0  1303               	bcf	3,6	;RP1=0, select bank0
  4526  0CF1  0846               	movf	clcd_putch@data,w
  4527  0CF2  120A  158A  2571  120A  158A  	fcall	_clcd_write
  4528  0CF7                     l208:
  4529  0CF7  0008               	return
  4530  0CF8                     __end_of_clcd_putch:
  4531                           
  4532                           	psect	text13
  4533  0CF8                     __ptext13:	
  4534 ;; *************** function _init_config *****************
  4535 ;; Defined at:
  4536 ;;		line 22 in file "main.c"
  4537 ;; Parameters:    Size  Location     Type
  4538 ;;		None
  4539 ;; Auto vars:     Size  Location     Type
  4540 ;;		None
  4541 ;; Return value:  Size  Location     Type
  4542 ;;                  1    wreg      void 
  4543 ;; Registers used:
  4544 ;;		wreg, status,2, status,0, pclath, cstack
  4545 ;; Tracked objects:
  4546 ;;		On entry : 0/0
  4547 ;;		On exit  : 0/0
  4548 ;;		Unchanged: 0/0
  4549 ;; Data sizes:     COMMON   BANK0   BANK1   BANK3   BANK2
  4550 ;;      Params:         0       0       0       0       0
  4551 ;;      Locals:         0       0       0       0       0
  4552 ;;      Temps:          0       0       0       0       0
  4553 ;;      Totals:         0       0       0       0       0
  4554 ;;Total ram usage:        0 bytes
  4555 ;; Hardware stack levels used: 1
  4556 ;; Hardware stack levels required when called: 4
  4557 ;; This function calls:
  4558 ;;		_init_clcd
  4559 ;;		_init_matrix_keypad
  4560 ;;		_init_timer2
  4561 ;; This function is called by:
  4562 ;;		_main
  4563 ;; This function uses a non-reentrant model
  4564 ;;
  4565                           
  4566                           
  4567                           ;psect for function _init_config
  4568  0CF8                     _init_config:
  4569  0CF8                     l1953:	
  4570                           ;incstack = 0
  4571                           ; Regs used in _init_config: [wreg+status,2+status,0+pclath+cstack]
  4572                           
  4573                           
  4574                           ;main.c: 24:     TRISB3 = 1;
  4575  0CF8  120A  158A  24BB  120A  158A  	fcall	_init_clcd
  4576                           
  4577                           ;main.c: 27: void main(void) {
  4578  0CFD  120A  158A  24D3  120A  158A  	fcall	_init_matrix_keypad
  4579                           
  4580                           ;main.c: 30:     init_config();
  4581  0D02  120A  158A  24C6  120A  158A  	fcall	_init_timer2
  4582  0D07                     l1955:
  4583                           
  4584                           ;main.c: 32:     clear_clcd();
  4585  0D07  170B               	bsf	11,6	;volatile
  4586  0D08                     l1957:
  4587                           
  4588                           ;main.c: 33:     operation_mode = 0x01;
  4589  0D08  178B               	bsf	11,7	;volatile
  4590  0D09                     l1959:
  4591                           
  4592                           ;main.c: 35:         key = read_matrix_keypad(1);
  4593  0D09  1683               	bsf	3,5	;RP0=1, select bank1
  4594  0D0A  1303               	bcf	3,6	;RP1=0, select bank1
  4595  0D0B  1107               	bcf	7,2	;volatile
  4596  0D0C                     l1961:
  4597                           
  4598                           ;main.c: 36:         if ((operation_mode == 0x02) || (operation_mode == 0x03 ) || (opera
      +                          tion_mode == 0x04))
  4599  0D0C  1283               	bcf	3,5	;RP0=0, select bank0
  4600  0D0D  1303               	bcf	3,6	;RP1=0, select bank0
  4601  0D0E  1107               	bcf	7,2	;volatile
  4602  0D0F                     l1963:
  4603                           
  4604                           ;main.c: 38:             ;
  4605  0D0F  1683               	bsf	3,5	;RP0=1, select bank1
  4606  0D10  1303               	bcf	3,6	;RP1=0, select bank1
  4607  0D11  1087               	bcf	7,1	;volatile
  4608  0D12                     l1965:
  4609                           
  4610                           ;main.c: 39:         }
  4611  0D12  1283               	bcf	3,5	;RP0=0, select bank0
  4612  0D13  1303               	bcf	3,6	;RP1=0, select bank0
  4613  0D14  1087               	bcf	7,1	;volatile
  4614  0D15                     l1967:
  4615                           
  4616                           ;main.c: 41:         {
  4617  0D15  1683               	bsf	3,5	;RP0=1, select bank1
  4618  0D16  1303               	bcf	3,6	;RP1=0, select bank1
  4619  0D17  1586               	bsf	6,3	;volatile
  4620  0D18                     l65:
  4621  0D18  0008               	return
  4622  0D19                     __end_of_init_config:
  4623                           
  4624                           	psect	text14
  4625  0CC6                     __ptext14:	
  4626 ;; *************** function _init_timer2 *****************
  4627 ;; Defined at:
  4628 ;;		line 5 in file "timers.c"
  4629 ;; Parameters:    Size  Location     Type
  4630 ;;		None
  4631 ;; Auto vars:     Size  Location     Type
  4632 ;;		None
  4633 ;; Return value:  Size  Location     Type
  4634 ;;                  1    wreg      void 
  4635 ;; Registers used:
  4636 ;;		wreg
  4637 ;; Tracked objects:
  4638 ;;		On entry : 0/0
  4639 ;;		On exit  : 0/0
  4640 ;;		Unchanged: 0/0
  4641 ;; Data sizes:     COMMON   BANK0   BANK1   BANK3   BANK2
  4642 ;;      Params:         0       0       0       0       0
  4643 ;;      Locals:         0       0       0       0       0
  4644 ;;      Temps:          0       0       0       0       0
  4645 ;;      Totals:         0       0       0       0       0
  4646 ;;Total ram usage:        0 bytes
  4647 ;; Hardware stack levels used: 1
  4648 ;; Hardware stack levels required when called: 1
  4649 ;; This function calls:
  4650 ;;		Nothing
  4651 ;; This function is called by:
  4652 ;;		_init_config
  4653 ;; This function uses a non-reentrant model
  4654 ;;
  4655                           
  4656                           
  4657                           ;psect for function _init_timer2
  4658  0CC6                     _init_timer2:
  4659  0CC6                     l1749:	
  4660                           ;incstack = 0
  4661                           ; Regs used in _init_timer2: [wreg]
  4662                           
  4663                           
  4664                           ;timers.c: 8:     T2CKPS0 = 1;
  4665  0CC6  1283               	bcf	3,5	;RP0=0, select bank0
  4666  0CC7  1303               	bcf	3,6	;RP1=0, select bank0
  4667  0CC8  1412               	bsf	18,0	;volatile
  4668                           
  4669                           ;timers.c: 9:     T2CKPS1 = 1;
  4670  0CC9  1492               	bsf	18,1	;volatile
  4671  0CCA                     l1751:
  4672                           
  4673                           ;timers.c: 12:     PR2 = 250;
  4674  0CCA  30FA               	movlw	250
  4675  0CCB  1683               	bsf	3,5	;RP0=1, select bank1
  4676  0CCC  1303               	bcf	3,6	;RP1=0, select bank1
  4677  0CCD  0092               	movwf	18	;volatile
  4678  0CCE                     l1753:
  4679                           
  4680                           ;timers.c: 15:     TMR2IE = 1;
  4681  0CCE  148C               	bsf	12,1	;volatile
  4682  0CCF                     l1755:
  4683                           
  4684                           ;timers.c: 18:     TMR2ON = 0;
  4685  0CCF  1283               	bcf	3,5	;RP0=0, select bank0
  4686  0CD0  1303               	bcf	3,6	;RP1=0, select bank0
  4687  0CD1  1112               	bcf	18,2	;volatile
  4688  0CD2                     l295:
  4689  0CD2  0008               	return
  4690  0CD3                     __end_of_init_timer2:
  4691                           
  4692                           	psect	text15
  4693  0CD3                     __ptext15:	
  4694 ;; *************** function _init_matrix_keypad *****************
  4695 ;; Defined at:
  4696 ;;		line 4 in file "matrix_keypad.c"
  4697 ;; Parameters:    Size  Location     Type
  4698 ;;		None
  4699 ;; Auto vars:     Size  Location     Type
  4700 ;;		None
  4701 ;; Return value:  Size  Location     Type
  4702 ;;                  1    wreg      void 
  4703 ;; Registers used:
  4704 ;;		wreg, status,2
  4705 ;; Tracked objects:
  4706 ;;		On entry : 0/0
  4707 ;;		On exit  : 0/0
  4708 ;;		Unchanged: 0/0
  4709 ;; Data sizes:     COMMON   BANK0   BANK1   BANK3   BANK2
  4710 ;;      Params:         0       0       0       0       0
  4711 ;;      Locals:         0       0       0       0       0
  4712 ;;      Temps:          0       0       0       0       0
  4713 ;;      Totals:         0       0       0       0       0
  4714 ;;Total ram usage:        0 bytes
  4715 ;; Hardware stack levels used: 1
  4716 ;; Hardware stack levels required when called: 1
  4717 ;; This function calls:
  4718 ;;		Nothing
  4719 ;; This function is called by:
  4720 ;;		_init_config
  4721 ;; This function uses a non-reentrant model
  4722 ;;
  4723                           
  4724                           
  4725                           ;psect for function _init_matrix_keypad
  4726  0CD3                     _init_matrix_keypad:
  4727  0CD3                     l1737:	
  4728                           ;incstack = 0
  4729                           ; Regs used in _init_matrix_keypad: [wreg+status,2]
  4730                           
  4731                           
  4732                           ;matrix_keypad.c: 7:     TRISB = TRISB | 0x07;
  4733  0CD3  1683               	bsf	3,5	;RP0=1, select bank1
  4734  0CD4  1303               	bcf	3,6	;RP1=0, select bank1
  4735  0CD5  0806               	movf	6,w	;volatile
  4736  0CD6  3807               	iorlw	7
  4737  0CD7  0086               	movwf	6	;volatile
  4738                           
  4739                           ;matrix_keypad.c: 9:     TRISD = TRISD & 0xF0;
  4740  0CD8  0808               	movf	8,w	;volatile
  4741  0CD9  39F0               	andlw	240
  4742  0CDA  0088               	movwf	8	;volatile
  4743  0CDB                     l1739:
  4744                           
  4745                           ;matrix_keypad.c: 12:     nRBPU = 0;
  4746  0CDB  1381               	bcf	1,7	;volatile
  4747  0CDC                     l1741:
  4748                           
  4749                           ;matrix_keypad.c: 15:     RD3 = 1;
  4750  0CDC  1283               	bcf	3,5	;RP0=0, select bank0
  4751  0CDD  1303               	bcf	3,6	;RP1=0, select bank0
  4752  0CDE  1588               	bsf	8,3	;volatile
  4753  0CDF                     l1743:
  4754                           
  4755                           ;matrix_keypad.c: 16:     RD2 = 1;
  4756  0CDF  1508               	bsf	8,2	;volatile
  4757  0CE0                     l1745:
  4758                           
  4759                           ;matrix_keypad.c: 17:     RD1 = 1;
  4760  0CE0  1488               	bsf	8,1	;volatile
  4761  0CE1                     l1747:
  4762                           
  4763                           ;matrix_keypad.c: 18:     RD0 = 1;
  4764  0CE1  1408               	bsf	8,0	;volatile
  4765  0CE2                     l237:
  4766  0CE2  0008               	return
  4767  0CE3                     __end_of_init_matrix_keypad:
  4768                           
  4769                           	psect	text16
  4770  0CBB                     __ptext16:	
  4771 ;; *************** function _init_clcd *****************
  4772 ;; Defined at:
  4773 ;;		line 44 in file "clcd.c"
  4774 ;; Parameters:    Size  Location     Type
  4775 ;;		None
  4776 ;; Auto vars:     Size  Location     Type
  4777 ;;		None
  4778 ;; Return value:  Size  Location     Type
  4779 ;;                  1    wreg      void 
  4780 ;; Registers used:
  4781 ;;		wreg, status,2, status,0, pclath, cstack
  4782 ;; Tracked objects:
  4783 ;;		On entry : 0/0
  4784 ;;		On exit  : 0/0
  4785 ;;		Unchanged: 0/0
  4786 ;; Data sizes:     COMMON   BANK0   BANK1   BANK3   BANK2
  4787 ;;      Params:         0       0       0       0       0
  4788 ;;      Locals:         0       0       0       0       0
  4789 ;;      Temps:          0       0       0       0       0
  4790 ;;      Totals:         0       0       0       0       0
  4791 ;;Total ram usage:        0 bytes
  4792 ;; Hardware stack levels used: 1
  4793 ;; Hardware stack levels required when called: 3
  4794 ;; This function calls:
  4795 ;;		_init_display_controller
  4796 ;; This function is called by:
  4797 ;;		_init_config
  4798 ;; This function uses a non-reentrant model
  4799 ;;
  4800                           
  4801                           
  4802                           ;psect for function _init_clcd
  4803  0CBB                     _init_clcd:
  4804  0CBB                     l1729:	
  4805                           ;incstack = 0
  4806                           ; Regs used in _init_clcd: [wreg+status,2+status,0+pclath+cstack]
  4807                           
  4808                           
  4809                           ;clcd.c: 47:     TRISD = 0x00;
  4810  0CBB  1683               	bsf	3,5	;RP0=1, select bank1
  4811  0CBC  1303               	bcf	3,6	;RP1=0, select bank1
  4812  0CBD  0188               	clrf	8	;volatile
  4813  0CBE                     l1731:
  4814                           
  4815                           ;clcd.c: 50:     TRISE2 = 0;
  4816  0CBE  1109               	bcf	9,2	;volatile
  4817  0CBF                     l1733:
  4818                           
  4819                           ;clcd.c: 51:     TRISE1 = 0;
  4820  0CBF  1089               	bcf	9,1	;volatile
  4821  0CC0                     l1735:
  4822                           
  4823                           ;clcd.c: 53:     init_display_controller();
  4824  0CC0  120A  158A  2698  120A  158A  	fcall	_init_display_controller
  4825  0CC5                     l205:
  4826  0CC5  0008               	return
  4827  0CC6                     __end_of_init_clcd:
  4828                           
  4829                           	psect	text17
  4830  0E98                     __ptext17:	
  4831 ;; *************** function _init_display_controller *****************
  4832 ;; Defined at:
  4833 ;;		line 21 in file "clcd.c"
  4834 ;; Parameters:    Size  Location     Type
  4835 ;;		None
  4836 ;; Auto vars:     Size  Location     Type
  4837 ;;		None
  4838 ;; Return value:  Size  Location     Type
  4839 ;;                  1    wreg      void 
  4840 ;; Registers used:
  4841 ;;		wreg, status,2, status,0, pclath, cstack
  4842 ;; Tracked objects:
  4843 ;;		On entry : 0/0
  4844 ;;		On exit  : 0/0
  4845 ;;		Unchanged: 0/0
  4846 ;; Data sizes:     COMMON   BANK0   BANK1   BANK3   BANK2
  4847 ;;      Params:         0       0       0       0       0
  4848 ;;      Locals:         0       0       0       0       0
  4849 ;;      Temps:          2       0       0       0       0
  4850 ;;      Totals:         2       0       0       0       0
  4851 ;;Total ram usage:        2 bytes
  4852 ;; Hardware stack levels used: 1
  4853 ;; Hardware stack levels required when called: 2
  4854 ;; This function calls:
  4855 ;;		_clcd_write
  4856 ;; This function is called by:
  4857 ;;		_init_clcd
  4858 ;; This function uses a non-reentrant model
  4859 ;;
  4860                           
  4861                           
  4862                           ;psect for function _init_display_controller
  4863  0E98                     _init_display_controller:
  4864  0E98                     l1705:	
  4865                           ;incstack = 0
  4866                           ; Regs used in _init_display_controller: [wreg+status,2+status,0+pclath+cstack]
  4867                           
  4868                           
  4869                           ;clcd.c: 24:     _delay((unsigned long)((30)*(20000000/4000.0)));
  4870  0E98  30C3               	movlw	195
  4871  0E99  00F8               	movwf	??_init_display_controller+1
  4872  0E9A  30CD               	movlw	205
  4873  0E9B  00F7               	movwf	??_init_display_controller
  4874  0E9C                     u2747:
  4875  0E9C  0BF7               	decfsz	??_init_display_controller,f
  4876  0E9D  2E9C               	goto	u2747
  4877  0E9E  0BF8               	decfsz	??_init_display_controller+1,f
  4878  0E9F  2E9C               	goto	u2747
  4879  0EA0                     l1707:
  4880                           
  4881                           ;clcd.c: 27:     clcd_write(0x33, 0);
  4882  0EA0  01F3               	clrf	clcd_write@mode
  4883  0EA1  3033               	movlw	51
  4884  0EA2  120A  158A  2571  120A  158A  	fcall	_clcd_write
  4885  0EA7                     l1709:
  4886                           
  4887                           ;clcd.c: 28:     _delay((unsigned long)((4100)*(20000000/4000000.0)));
  4888  0EA7  301B               	movlw	27
  4889  0EA8  00F8               	movwf	??_init_display_controller+1
  4890  0EA9  309E               	movlw	158
  4891  0EAA  00F7               	movwf	??_init_display_controller
  4892  0EAB                     u2757:
  4893  0EAB  0BF7               	decfsz	??_init_display_controller,f
  4894  0EAC  2EAB               	goto	u2757
  4895  0EAD  0BF8               	decfsz	??_init_display_controller+1,f
  4896  0EAE  2EAB               	goto	u2757
  4897  0EAF  0000               	nop
  4898                           
  4899                           ;clcd.c: 29:     clcd_write(0x33, 0);
  4900  0EB0  01F3               	clrf	clcd_write@mode
  4901  0EB1  3033               	movlw	51
  4902  0EB2  120A  158A  2571  120A  158A  	fcall	_clcd_write
  4903  0EB7                     l1711:
  4904                           
  4905                           ;clcd.c: 30:     _delay((unsigned long)((100)*(20000000/4000000.0)));
  4906  0EB7  30A6               	movlw	166
  4907  0EB8  00F7               	movwf	??_init_display_controller
  4908  0EB9                     u2767:
  4909  0EB9  0BF7               	decfsz	??_init_display_controller,f
  4910  0EBA  2EB9               	goto	u2767
  4911  0EBB  0000               	nop
  4912  0EBC                     l1713:
  4913                           
  4914                           ;clcd.c: 31:     clcd_write(0x33, 0);
  4915  0EBC  01F3               	clrf	clcd_write@mode
  4916  0EBD  3033               	movlw	51
  4917  0EBE  120A  158A  2571  120A  158A  	fcall	_clcd_write
  4918  0EC3                     l1715:
  4919                           
  4920                           ;clcd.c: 32:     _delay((unsigned long)((1)*(20000000/4000000.0)));
  4921  0EC3  2EC4               	nop2	;2 cycle nop
  4922  0EC4  2EC5               	nop2	;2 cycle nop
  4923  0EC5  0000               	nop
  4924  0EC6                     l1717:
  4925                           
  4926                           ;clcd.c: 34:     clcd_write(0x02, 0);
  4927  0EC6  01F3               	clrf	clcd_write@mode
  4928  0EC7  3002               	movlw	2
  4929  0EC8  120A  158A  2571  120A  158A  	fcall	_clcd_write
  4930  0ECD                     l1719:
  4931                           
  4932                           ;clcd.c: 35:     _delay((unsigned long)((100)*(20000000/4000000.0)));
  4933  0ECD  30A6               	movlw	166
  4934  0ECE  00F7               	movwf	??_init_display_controller
  4935  0ECF                     u2777:
  4936  0ECF  0BF7               	decfsz	??_init_display_controller,f
  4937  0ED0  2ECF               	goto	u2777
  4938  0ED1  0000               	nop
  4939                           
  4940                           ;clcd.c: 36:     clcd_write(0x28, 0);
  4941  0ED2  01F3               	clrf	clcd_write@mode
  4942  0ED3  3028               	movlw	40
  4943  0ED4  120A  158A  2571  120A  158A  	fcall	_clcd_write
  4944  0ED9                     l1721:
  4945                           
  4946                           ;clcd.c: 37:     _delay((unsigned long)((100)*(20000000/4000000.0)));
  4947  0ED9  30A6               	movlw	166
  4948  0EDA  00F7               	movwf	??_init_display_controller
  4949  0EDB                     u2787:
  4950  0EDB  0BF7               	decfsz	??_init_display_controller,f
  4951  0EDC  2EDB               	goto	u2787
  4952  0EDD  0000               	nop
  4953  0EDE                     l1723:
  4954                           
  4955                           ;clcd.c: 38:     clcd_write(0x01, 0);
  4956  0EDE  01F3               	clrf	clcd_write@mode
  4957  0EDF  3001               	movlw	1
  4958  0EE0  120A  158A  2571  120A  158A  	fcall	_clcd_write
  4959                           
  4960                           ;clcd.c: 39:     _delay((unsigned long)((500)*(20000000/4000000.0)));
  4961  0EE5  3004               	movlw	4
  4962  0EE6  00F8               	movwf	??_init_display_controller+1
  4963  0EE7  303D               	movlw	61
  4964  0EE8  00F7               	movwf	??_init_display_controller
  4965  0EE9                     u2797:
  4966  0EE9  0BF7               	decfsz	??_init_display_controller,f
  4967  0EEA  2EE9               	goto	u2797
  4968  0EEB  0BF8               	decfsz	??_init_display_controller+1,f
  4969  0EEC  2EE9               	goto	u2797
  4970  0EED  2EEE               	nop2
  4971  0EEE                     l1725:
  4972                           
  4973                           ;clcd.c: 40:     clcd_write(0x0C, 0);
  4974  0EEE  01F3               	clrf	clcd_write@mode
  4975  0EEF  300C               	movlw	12
  4976  0EF0  120A  158A  2571  120A  158A  	fcall	_clcd_write
  4977  0EF5                     l1727:
  4978                           
  4979                           ;clcd.c: 41:     _delay((unsigned long)((100)*(20000000/4000000.0)));
  4980  0EF5  30A6               	movlw	166
  4981  0EF6  00F7               	movwf	??_init_display_controller
  4982  0EF7                     u2807:
  4983  0EF7  0BF7               	decfsz	??_init_display_controller,f
  4984  0EF8  2EF7               	goto	u2807
  4985  0EF9  0000               	nop
  4986  0EFA                     l202:
  4987  0EFA  0008               	return
  4988  0EFB                     __end_of_init_display_controller:
  4989                           
  4990                           	psect	text18
  4991  07B4                     __ptext18:	
  4992 ;; *************** function _cooking_mode_display *****************
  4993 ;; Defined at:
  4994 ;;		line 212 in file "main.c"
  4995 ;; Parameters:    Size  Location     Type
  4996 ;;		None
  4997 ;; Auto vars:     Size  Location     Type
  4998 ;;		None
  4999 ;; Return value:  Size  Location     Type
  5000 ;;                  1    wreg      void 
  5001 ;; Registers used:
  5002 ;;		wreg, fsr0l, fsr0h, status,2, status,0, btemp+1, pclath, cstack
  5003 ;; Tracked objects:
  5004 ;;		On entry : 0/0
  5005 ;;		On exit  : 0/0
  5006 ;;		Unchanged: 0/0
  5007 ;; Data sizes:     COMMON   BANK0   BANK1   BANK3   BANK2
  5008 ;;      Params:         0       0       0       0       0
  5009 ;;      Locals:         0       0       0       0       0
  5010 ;;      Temps:          1       0       0       0       0
  5011 ;;      Totals:         1       0       0       0       0
  5012 ;;Total ram usage:        1 bytes
  5013 ;; Hardware stack levels used: 1
  5014 ;; Hardware stack levels required when called: 3
  5015 ;; This function calls:
  5016 ;;		_clcd_print
  5017 ;; This function is called by:
  5018 ;;		_main
  5019 ;; This function uses a non-reentrant model
  5020 ;;
  5021                           
  5022                           
  5023                           ;psect for function _cooking_mode_display
  5024  07B4                     _cooking_mode_display:
  5025  07B4                     l2515:	
  5026                           ;incstack = 0
  5027                           ; Regs used in _cooking_mode_display: [wreg-fsr0h+status,2+status,0+btemp+1+pclath+cstac
      +                          k]
  5028                           
  5029                           
  5030                           ;main.c: 214:         sec = 0;
  5031  07B4  30E9               	movlw	low (STR_4| (0+32768))
  5032  07B5  1283               	bcf	3,5	;RP0=0, select bank0
  5033  07B6  1303               	bcf	3,6	;RP1=0, select bank0
  5034  07B7  00BB               	movwf	clcd_print@str
  5035  07B8  3086               	movlw	high (STR_4| (0+32768))
  5036  07B9  00BC               	movwf	clcd_print@str+1
  5037  07BA  3080               	movlw	128
  5038  07BB  00F7               	movwf	??_cooking_mode_display
  5039  07BC  0877               	movf	??_cooking_mode_display,w
  5040  07BD  00BD               	movwf	clcd_print@addr
  5041  07BE  120A  158A  253E  120A  118A  	fcall	_clcd_print
  5042                           
  5043                           ;main.c: 215:         blink_pos = 0;
  5044  07C3  30E1               	movlw	low (STR_5| (0+32768))
  5045  07C4  1283               	bcf	3,5	;RP0=0, select bank0
  5046  07C5  1303               	bcf	3,6	;RP1=0, select bank0
  5047  07C6  00BB               	movwf	clcd_print@str
  5048  07C7  3086               	movlw	high (STR_5| (0+32768))
  5049  07C8  00BC               	movwf	clcd_print@str+1
  5050  07C9  30C0               	movlw	192
  5051  07CA  00F7               	movwf	??_cooking_mode_display
  5052  07CB  0877               	movf	??_cooking_mode_display,w
  5053  07CC  00BD               	movwf	clcd_print@addr
  5054  07CD  120A  158A  253E  120A  118A  	fcall	_clcd_print
  5055                           
  5056                           ;main.c: 216:         key = 0xFF;
  5057  07D2  30A5               	movlw	low (STR_6| (0+32768))
  5058  07D3  1283               	bcf	3,5	;RP0=0, select bank0
  5059  07D4  1303               	bcf	3,6	;RP1=0, select bank0
  5060  07D5  00BB               	movwf	clcd_print@str
  5061  07D6  3086               	movlw	high (STR_6| (0+32768))
  5062  07D7  00BC               	movwf	clcd_print@str+1
  5063  07D8  3090               	movlw	144
  5064  07D9  00F7               	movwf	??_cooking_mode_display
  5065  07DA  0877               	movf	??_cooking_mode_display,w
  5066  07DB  00BD               	movwf	clcd_print@addr
  5067  07DC  120A  158A  253E  120A  118A  	fcall	_clcd_print
  5068                           
  5069                           ;main.c: 217:         clcd_print("SET TIME (MM:SS)", (0x80 + 0));
  5070  07E1  30F9               	movlw	low (STR_7| (0+32768))
  5071  07E2  1283               	bcf	3,5	;RP0=0, select bank0
  5072  07E3  1303               	bcf	3,6	;RP1=0, select bank0
  5073  07E4  00BB               	movwf	clcd_print@str
  5074  07E5  3086               	movlw	high (STR_7| (0+32768))
  5075  07E6  00BC               	movwf	clcd_print@str+1
  5076  07E7  30D0               	movlw	208
  5077  07E8  00F7               	movwf	??_cooking_mode_display
  5078  07E9  0877               	movf	??_cooking_mode_display,w
  5079  07EA  00BD               	movwf	clcd_print@addr
  5080  07EB  120A  158A  253E  120A  118A  	fcall	_clcd_print
  5081  07F0                     l121:
  5082  07F0  0008               	return
  5083  07F1                     __end_of_cooking_mode_display:
  5084                           
  5085                           	psect	text19
  5086  0D3E                     __ptext19:	
  5087 ;; *************** function _clcd_print *****************
  5088 ;; Defined at:
  5089 ;;		line 62 in file "clcd.c"
  5090 ;; Parameters:    Size  Location     Type
  5091 ;;  str             2    0[BANK0 ] PTR const unsigned char 
  5092 ;;		 -> STR_25(4), set_temp@temp_arr(4), STR_24(11), STR_23(17), 
  5093 ;;		 -> STR_22(17), STR_21(8), STR_20(15), STR_19(10), 
  5094 ;;		 -> STR_18(8), STR_17(9), STR_16(16), STR_15(9), 
  5095 ;;		 -> STR_14(15), STR_13(17), STR_12(3), STR_11(3), 
  5096 ;;		 -> STR_10(17), STR_9(7), STR_8(17), STR_7(8), 
  5097 ;;		 -> STR_6(13), STR_5(8), STR_4(8), STR_3(17), 
  5098 ;;		 -> STR_2(17), STR_1(17), 
  5099 ;;  addr            1    2[BANK0 ] unsigned char 
  5100 ;; Auto vars:     Size  Location     Type
  5101 ;;		None
  5102 ;; Return value:  Size  Location     Type
  5103 ;;                  1    wreg      void 
  5104 ;; Registers used:
  5105 ;;		wreg, fsr0l, fsr0h, status,2, status,0, btemp+1, pclath, cstack
  5106 ;; Tracked objects:
  5107 ;;		On entry : 0/0
  5108 ;;		On exit  : 0/0
  5109 ;;		Unchanged: 0/0
  5110 ;; Data sizes:     COMMON   BANK0   BANK1   BANK3   BANK2
  5111 ;;      Params:         0       3       0       0       0
  5112 ;;      Locals:         0       0       0       0       0
  5113 ;;      Temps:          0       0       0       0       0
  5114 ;;      Totals:         0       3       0       0       0
  5115 ;;Total ram usage:        3 bytes
  5116 ;; Hardware stack levels used: 1
  5117 ;; Hardware stack levels required when called: 2
  5118 ;; This function calls:
  5119 ;;		_clcd_write
  5120 ;; This function is called by:
  5121 ;;		_main
  5122 ;;		_power_on_screen
  5123 ;;		_cooking_mode_display
  5124 ;;		_set_time
  5125 ;;		_door_status_check
  5126 ;;		_time_display_screen
  5127 ;;		_set_temp
  5128 ;; This function uses a non-reentrant model
  5129 ;;
  5130                           
  5131                           
  5132                           ;psect for function _clcd_print
  5133  0D3E                     _clcd_print:
  5134  0D3E                     l2429:	
  5135                           ;incstack = 0
  5136                           ; Regs used in _clcd_print: [wreg-fsr0h+status,2+status,0+btemp+1+pclath+cstack]
  5137                           
  5138                           
  5139                           ;clcd.c: 62: void clcd_print(const char *str, unsigned char addr);clcd.c: 63: {;clcd.c: 
      +                          64:     clcd_write(addr, 0);
  5140  0D3E  01F3               	clrf	clcd_write@mode
  5141  0D3F  1283               	bcf	3,5	;RP0=0, select bank0
  5142  0D40  1303               	bcf	3,6	;RP1=0, select bank0
  5143  0D41  083D               	movf	clcd_print@addr,w
  5144  0D42  120A  158A  2571  120A  158A  	fcall	_clcd_write
  5145                           
  5146                           ;clcd.c: 66:     while (*str != '\0')
  5147  0D47  2D60               	goto	l2435
  5148  0D48                     l2431:
  5149                           
  5150                           ;clcd.c: 67:     {;clcd.c: 68:         clcd_write(*str, 1);
  5151  0D48  01F3               	clrf	clcd_write@mode
  5152  0D49  0AF3               	incf	clcd_write@mode,f
  5153  0D4A  083C               	movf	clcd_print@str+1,w
  5154  0D4B  00FF               	movwf	btemp+1
  5155  0D4C  083B               	movf	clcd_print@str,w
  5156  0D4D  0084               	movwf	4
  5157  0D4E  120A  158A  2000  120A  158A  	fcall	stringtab
  5158  0D53  120A  158A  2571  120A  158A  	fcall	_clcd_write
  5159  0D58                     l2433:
  5160                           
  5161                           ;clcd.c: 69:         str++;
  5162  0D58  3001               	movlw	1
  5163  0D59  1283               	bcf	3,5	;RP0=0, select bank0
  5164  0D5A  1303               	bcf	3,6	;RP1=0, select bank0
  5165  0D5B  07BB               	addwf	clcd_print@str,f
  5166  0D5C  1803               	skipnc
  5167  0D5D  0ABC               	incf	clcd_print@str+1,f
  5168  0D5E  3000               	movlw	0
  5169  0D5F  07BC               	addwf	clcd_print@str+1,f
  5170  0D60                     l2435:
  5171                           
  5172                           ;clcd.c: 66:     while (*str != '\0')
  5173  0D60  1283               	bcf	3,5	;RP0=0, select bank0
  5174  0D61  1303               	bcf	3,6	;RP1=0, select bank0
  5175  0D62  083C               	movf	clcd_print@str+1,w
  5176  0D63  00FF               	movwf	btemp+1
  5177  0D64  083B               	movf	clcd_print@str,w
  5178  0D65  0084               	movwf	4
  5179  0D66  120A  158A  2000  120A  158A  	fcall	stringtab
  5180  0D6B  3A00               	xorlw	0
  5181  0D6C  1D03               	skipz
  5182  0D6D  2D6F               	goto	u2071
  5183  0D6E  2D70               	goto	u2070
  5184  0D6F                     u2071:
  5185  0D6F  2D48               	goto	l2431
  5186  0D70                     u2070:
  5187  0D70                     l214:
  5188  0D70  0008               	return
  5189  0D71                     __end_of_clcd_print:
  5190                           
  5191                           	psect	text20
  5192  0D71                     __ptext20:	
  5193 ;; *************** function _clcd_write *****************
  5194 ;; Defined at:
  5195 ;;		line 4 in file "clcd.c"
  5196 ;; Parameters:    Size  Location     Type
  5197 ;;  byte            1    wreg     unsigned char 
  5198 ;;  mode            1    3[COMMON] unsigned char 
  5199 ;; Auto vars:     Size  Location     Type
  5200 ;;  byte            1    6[COMMON] unsigned char 
  5201 ;; Return value:  Size  Location     Type
  5202 ;;                  1    wreg      void 
  5203 ;; Registers used:
  5204 ;;		wreg, status,2, status,0
  5205 ;; Tracked objects:
  5206 ;;		On entry : 0/0
  5207 ;;		On exit  : 0/0
  5208 ;;		Unchanged: 0/0
  5209 ;; Data sizes:     COMMON   BANK0   BANK1   BANK3   BANK2
  5210 ;;      Params:         1       0       0       0       0
  5211 ;;      Locals:         1       0       0       0       0
  5212 ;;      Temps:          2       0       0       0       0
  5213 ;;      Totals:         4       0       0       0       0
  5214 ;;Total ram usage:        4 bytes
  5215 ;; Hardware stack levels used: 1
  5216 ;; Hardware stack levels required when called: 1
  5217 ;; This function calls:
  5218 ;;		Nothing
  5219 ;; This function is called by:
  5220 ;;		_clear_clcd
  5221 ;;		_init_display_controller
  5222 ;;		_clcd_putch
  5223 ;;		_clcd_print
  5224 ;; This function uses a non-reentrant model
  5225 ;;
  5226                           
  5227                           
  5228                           ;psect for function _clcd_write
  5229  0D71                     _clcd_write:
  5230                           
  5231                           ;incstack = 0
  5232                           ; Regs used in _clcd_write: [wreg+status,2+status,0]
  5233                           ;clcd_write@byte stored from wreg
  5234  0D71  00F6               	movwf	clcd_write@byte
  5235  0D72                     l1673:
  5236                           
  5237                           ;clcd.c: 4:  void clcd_write(unsigned char byte, unsigned char mode);clcd.c: 5: {;clcd.c
      +                          : 6:     RE2 = mode;
  5238  0D72  1873               	btfsc	clcd_write@mode,0
  5239  0D73  2D75               	goto	u1041
  5240  0D74  2D79               	goto	u1040
  5241  0D75                     u1041:
  5242  0D75  1283               	bcf	3,5	;RP0=0, select bank0
  5243  0D76  1303               	bcf	3,6	;RP1=0, select bank0
  5244  0D77  1509               	bsf	9,2	;volatile
  5245  0D78  2D7C               	goto	u1054
  5246  0D79                     u1040:
  5247  0D79  1283               	bcf	3,5	;RP0=0, select bank0
  5248  0D7A  1303               	bcf	3,6	;RP1=0, select bank0
  5249  0D7B  1109               	bcf	9,2	;volatile
  5250  0D7C                     u1054:
  5251  0D7C                     l1675:
  5252                           
  5253                           ;clcd.c: 8:     PORTD = byte & 0xF0;
  5254  0D7C  0876               	movf	clcd_write@byte,w
  5255  0D7D  39F0               	andlw	240
  5256  0D7E  0088               	movwf	8	;volatile
  5257  0D7F                     l1677:
  5258                           
  5259                           ;clcd.c: 9:     RE1 = 1;
  5260  0D7F  1489               	bsf	9,1	;volatile
  5261  0D80                     l1679:
  5262                           
  5263                           ;clcd.c: 10:     _delay((unsigned long)((100)*(20000000/4000000.0)));
  5264  0D80  30A6               	movlw	166
  5265  0D81  00F4               	movwf	??_clcd_write
  5266  0D82                     u2817:
  5267  0D82  0BF4               	decfsz	??_clcd_write,f
  5268  0D83  2D82               	goto	u2817
  5269  0D84  0000               	nop
  5270  0D85                     l1681:
  5271                           
  5272                           ;clcd.c: 11:     RE1 = 0;
  5273  0D85  1283               	bcf	3,5	;RP0=0, select bank0
  5274  0D86  1303               	bcf	3,6	;RP1=0, select bank0
  5275  0D87  1089               	bcf	9,1	;volatile
  5276  0D88                     l1683:
  5277                           
  5278                           ;clcd.c: 13:     PORTD = (byte & 0x0F) << 4;
  5279  0D88  0876               	movf	clcd_write@byte,w
  5280  0D89  390F               	andlw	15
  5281  0D8A  00F4               	movwf	??_clcd_write
  5282  0D8B  3003               	movlw	3
  5283  0D8C                     u1065:
  5284  0D8C  1003               	clrc
  5285  0D8D  0DF4               	rlf	??_clcd_write,f
  5286  0D8E  3EFF               	addlw	-1
  5287  0D8F  1D03               	skipz
  5288  0D90  2D8C               	goto	u1065
  5289  0D91  1003               	clrc
  5290  0D92  0D74               	rlf	??_clcd_write,w
  5291  0D93  0088               	movwf	8	;volatile
  5292  0D94                     l1685:
  5293                           
  5294                           ;clcd.c: 14:     RE1 = 1;
  5295  0D94  1489               	bsf	9,1	;volatile
  5296  0D95                     l1687:
  5297                           
  5298                           ;clcd.c: 15:     _delay((unsigned long)((100)*(20000000/4000000.0)));
  5299  0D95  30A6               	movlw	166
  5300  0D96  00F4               	movwf	??_clcd_write
  5301  0D97                     u2827:
  5302  0D97  0BF4               	decfsz	??_clcd_write,f
  5303  0D98  2D97               	goto	u2827
  5304  0D99  0000               	nop
  5305  0D9A                     l1689:
  5306                           
  5307                           ;clcd.c: 16:     RE1 = 0;
  5308  0D9A  1283               	bcf	3,5	;RP0=0, select bank0
  5309  0D9B  1303               	bcf	3,6	;RP1=0, select bank0
  5310  0D9C  1089               	bcf	9,1	;volatile
  5311  0D9D                     l1691:
  5312                           
  5313                           ;clcd.c: 18:     _delay((unsigned long)((4100)*(20000000/4000000.0)));
  5314  0D9D  301B               	movlw	27
  5315  0D9E  00F5               	movwf	??_clcd_write+1
  5316  0D9F  309E               	movlw	158
  5317  0DA0  00F4               	movwf	??_clcd_write
  5318  0DA1                     u2837:
  5319  0DA1  0BF4               	decfsz	??_clcd_write,f
  5320  0DA2  2DA1               	goto	u2837
  5321  0DA3  0BF5               	decfsz	??_clcd_write+1,f
  5322  0DA4  2DA1               	goto	u2837
  5323  0DA5  0000               	nop
  5324  0DA6                     l199:
  5325  0DA6  0008               	return
  5326  0DA7                     __end_of_clcd_write:
  5327                           
  5328                           	psect	text21
  5329  0DA7                     __ptext21:	
  5330 ;; *************** function _isr *****************
  5331 ;; Defined at:
  5332 ;;		line 4 in file "isr.c"
  5333 ;; Parameters:    Size  Location     Type
  5334 ;;		None
  5335 ;; Auto vars:     Size  Location     Type
  5336 ;;		None
  5337 ;; Return value:  Size  Location     Type
  5338 ;;                  1    wreg      void 
  5339 ;; Registers used:
  5340 ;;		wreg, status,2, status,0
  5341 ;; Tracked objects:
  5342 ;;		On entry : 0/0
  5343 ;;		On exit  : 0/0
  5344 ;;		Unchanged: 0/0
  5345 ;; Data sizes:     COMMON   BANK0   BANK1   BANK3   BANK2
  5346 ;;      Params:         0       0       0       0       0
  5347 ;;      Locals:         0       0       0       0       0
  5348 ;;      Temps:          3       0       0       0       0
  5349 ;;      Totals:         3       0       0       0       0
  5350 ;;Total ram usage:        3 bytes
  5351 ;; Hardware stack levels used: 1
  5352 ;; This function calls:
  5353 ;;		Nothing
  5354 ;; This function is called by:
  5355 ;;		Interrupt level 1
  5356 ;; This function uses a non-reentrant model
  5357 ;;
  5358                           
  5359                           
  5360                           ;psect for function _isr
  5361  0DA7                     _isr:
  5362  0DA7                     i1l2359:
  5363                           
  5364                           ;isr.c: 6:     static unsigned int count = 0;;isr.c: 8:     if (TMR2IF == 1)
  5365  0DA7  1283               	bcf	3,5	;RP0=0, select bank0
  5366  0DA8  1303               	bcf	3,6	;RP1=0, select bank0
  5367  0DA9  1C8C               	btfss	12,1	;volatile
  5368  0DAA  2DAC               	goto	u202_21
  5369  0DAB  2DAD               	goto	u202_20
  5370  0DAC                     u202_21:
  5371  0DAC  2DD7               	goto	i1l313
  5372  0DAD                     u202_20:
  5373  0DAD                     i1l2361:
  5374                           
  5375                           ;isr.c: 9:     {;isr.c: 10:         if (++count == 1250)
  5376  0DAD  3001               	movlw	1
  5377  0DAE  07A0               	addwf	isr@count,f
  5378  0DAF  1803               	skipnc
  5379  0DB0  0AA1               	incf	isr@count+1,f
  5380  0DB1  3000               	movlw	0
  5381  0DB2  07A1               	addwf	isr@count+1,f
  5382  0DB3  30E2               	movlw	226
  5383  0DB4  0620               	xorwf	isr@count,w
  5384  0DB5  3004               	movlw	4
  5385  0DB6  1903               	skipnz
  5386  0DB7  0621               	xorwf	isr@count+1,w
  5387  0DB8  1D03               	btfss	3,2
  5388  0DB9  2DBB               	goto	u203_21
  5389  0DBA  2DBC               	goto	u203_20
  5390  0DBB                     u203_21:
  5391  0DBB  2DD6               	goto	i1l2377
  5392  0DBC                     u203_20:
  5393  0DBC                     i1l2363:
  5394                           
  5395                           ;isr.c: 11:         {;isr.c: 12:             count = 0;
  5396  0DBC  01A0               	clrf	isr@count
  5397  0DBD  01A1               	clrf	isr@count+1
  5398  0DBE                     i1l2365:
  5399                           
  5400                           ;isr.c: 13:             if( sec > 0)
  5401  0DBE  0836               	movf	_sec,w
  5402  0DBF  1903               	btfsc	3,2
  5403  0DC0  2DC2               	goto	u204_21
  5404  0DC1  2DC3               	goto	u204_20
  5405  0DC2                     u204_21:
  5406  0DC2  2DC6               	goto	i1l2369
  5407  0DC3                     u204_20:
  5408  0DC3                     i1l2367:
  5409                           
  5410                           ;isr.c: 14:             {;isr.c: 16:                 sec--;
  5411  0DC3  3001               	movlw	1
  5412  0DC4  02B6               	subwf	_sec,f
  5413                           
  5414                           ;isr.c: 17:             }
  5415  0DC5  2DD6               	goto	i1l2377
  5416  0DC6                     i1l2369:
  5417  0DC6  0836               	movf	_sec,w
  5418  0DC7  1D03               	btfss	3,2
  5419  0DC8  2DCA               	goto	u205_21
  5420  0DC9  2DCB               	goto	u205_20
  5421  0DCA                     u205_21:
  5422  0DCA  2DD6               	goto	i1l2377
  5423  0DCB                     u205_20:
  5424  0DCB                     i1l2371:
  5425  0DCB  0835               	movf	_min,w
  5426  0DCC  1903               	btfsc	3,2
  5427  0DCD  2DCF               	goto	u206_21
  5428  0DCE  2DD0               	goto	u206_20
  5429  0DCF                     u206_21:
  5430  0DCF  2DD6               	goto	i1l2377
  5431  0DD0                     u206_20:
  5432  0DD0                     i1l2373:
  5433                           
  5434                           ;isr.c: 19:             {;isr.c: 20:                 min--;
  5435  0DD0  3001               	movlw	1
  5436  0DD1  02B5               	subwf	_min,f
  5437  0DD2                     i1l2375:
  5438                           
  5439                           ;isr.c: 21:                 sec = 59;
  5440  0DD2  303B               	movlw	59
  5441  0DD3  00F0               	movwf	??_isr
  5442  0DD4  0870               	movf	??_isr,w
  5443  0DD5  00B6               	movwf	_sec
  5444  0DD6                     i1l2377:
  5445                           
  5446                           ;isr.c: 25:          TMR2IF = 0;
  5447  0DD6  108C               	bcf	12,1	;volatile
  5448  0DD7                     i1l313:
  5449  0DD7  0872               	movf	??_isr+2,w
  5450  0DD8  008A               	movwf	10
  5451  0DD9  0E71               	swapf	??_isr+1,w
  5452  0DDA  0083               	movwf	3
  5453  0DDB  0EFE               	swapf	btemp,f
  5454  0DDC  0E7E               	swapf	btemp,w
  5455  0DDD  0009               	retfie
  5456  0DDE                     __end_of_isr:
  5457  007E                     btemp	set	126	;btemp
  5458  007E                     wtemp0	set	126
  5459                           
  5460                           	psect	intentry
  5461  0004                     __pintentry:	
  5462                           ;incstack = 0
  5463                           ; Regs used in _isr: [wreg+status,2+status,0]
  5464                           
  5465  0004                     interrupt_function:
  5466  007E                     saved_w	set	btemp
  5467  0004  00FE               	movwf	btemp
  5468  0005  0E03               	swapf	3,w
  5469  0006  00F1               	movwf	??_isr+1
  5470  0007  080A               	movf	10,w
  5471  0008  00F2               	movwf	??_isr+2
  5472  0009  120A  158A  2DA7   	ljmp	_isr
  5473                           
  5474                           	psect	config
  5475                           
  5476                           ;Config register CONFIG @ 0x2007
  5477                           ;	Oscillator Selection bits
  5478                           ;	FOSC = 0x3, unprogrammed default
  5479                           ;	Watchdog Timer Enable bit
  5480                           ;	WDTE = OFF, WDT disabled
  5481                           ;	Power-up Timer Enable bit
  5482                           ;	PWRTE = 0x1, unprogrammed default
  5483                           ;	Brown-out Reset Enable bit
  5484                           ;	BOREN = 0x1, unprogrammed default
  5485                           ;	Low-Voltage (Single-Supply) In-Circuit Serial Programming Enable bit
  5486                           ;	LVP = 0x1, unprogrammed default
  5487                           ;	Data EEPROM Memory Code Protection bit
  5488                           ;	CPD = 0x1, unprogrammed default
  5489                           ;	Flash Program Memory Write Enable bits
  5490                           ;	WRT = 0x3, unprogrammed default
  5491                           ;	In-Circuit Debugger Mode bit
  5492                           ;	DEBUG = 0x1, unprogrammed default
  5493                           ;	Flash Program Memory Code Protection bit
  5494                           ;	CP = 0x1, unprogrammed default
  5495  2007                     	org	8199
  5496  2007  3FFB               	dw	16379

Data Sizes:
    Strings     264
    Constant    0
    Data        1
    BSS         28
    Persistent  0
    Stack       0

Auto Spaces:
    Space          Size  Autos    Used
    COMMON           14      9      11
    BANK0            80     21      48
    BANK1            80      0       0
    BANK3            96      0       0
    BANK2            96      0       0

Pointer List with Targets:

    clcd_print@str	PTR const unsigned char  size(2) Largest target is 17
		 -> STR_25(CODE[4]), set_temp@temp_arr(BANK0[4]), STR_24(CODE[11]), STR_23(CODE[17]), 
		 -> STR_22(CODE[17]), STR_21(CODE[8]), STR_20(CODE[15]), STR_19(CODE[10]), 
		 -> STR_18(CODE[8]), STR_17(CODE[9]), STR_16(CODE[16]), STR_15(CODE[9]), 
		 -> STR_14(CODE[15]), STR_13(CODE[17]), STR_12(CODE[3]), STR_11(CODE[3]), 
		 -> STR_10(CODE[17]), STR_9(CODE[7]), STR_8(CODE[17]), STR_7(CODE[8]), 
		 -> STR_6(CODE[13]), STR_5(CODE[8]), STR_4(CODE[8]), STR_3(CODE[17]), 
		 -> STR_2(CODE[17]), STR_1(CODE[17]), 


Critical Paths under _main in COMMON

    _time_display_screen->___awmod
    _time_display_screen->_door_status_check
    _door_status_check->_clear_clcd
    _set_time->___awmod
    _set_temp->___awmod
    _clear_clcd->_clcd_write
    ___awmod->___awdiv
    _read_matrix_keypad->_scan_keypad
    _clcd_putch->___awmod
    _init_clcd->_init_display_controller
    _init_display_controller->_clcd_write
    _clcd_print->_clcd_write

Critical Paths under _isr in COMMON

    None.

Critical Paths under _main in BANK0

    _main->_power_on_screen
    _time_display_screen->_clcd_putch
    _door_status_check->_clcd_print
    _set_time->_clcd_putch
    _set_temp->_clcd_putch
    ___awmod->___awdiv
    _power_on_screen->_clcd_putch
    _clcd_putch->___awmod
    _cooking_mode_display->_clcd_print

Critical Paths under _isr in BANK0

    None.

Critical Paths under _main in BANK1

    None.

Critical Paths under _isr in BANK1

    None.

Critical Paths under _main in BANK3

    None.

Critical Paths under _isr in BANK3

    None.

Critical Paths under _main in BANK2

    None.

Critical Paths under _isr in BANK2

    None.

Call Graph Tables:

 ---------------------------------------------------------------------------------
 (Depth) Function   	        Calls       Base Space   Used Autos Params    Refs
 ---------------------------------------------------------------------------------
 (0) _main                                                 4     4      0   67028
                                             17 BANK0      4     4      0
                         _clcd_print
                         _clear_clcd
               _cooking_mode_display
                        _init_config
                    _power_on_screen
                 _read_matrix_keypad
                           _set_temp
                           _set_time
                _time_display_screen
 ---------------------------------------------------------------------------------
 (1) _time_display_screen                                  3     3      0   19091
                                             12 BANK0      3     3      0
                            ___awdiv
                            ___awmod
                         _clcd_print
                         _clcd_putch
                         _clear_clcd
                  _door_status_check
 ---------------------------------------------------------------------------------
 (2) _door_status_check                                    1     1      0    6732
                                              8 COMMON     1     1      0
                         _clcd_print
                         _clear_clcd
 ---------------------------------------------------------------------------------
 (1) _set_time                                             4     4      0   12899
                                             12 BANK0      4     4      0
                            ___awdiv
                            ___awmod
                             ___bmul
                         _clcd_print
                         _clcd_putch
                         _clear_clcd
 ---------------------------------------------------------------------------------
 (1) _set_temp                                             4     4      0   12868
                                             12 BANK0      4     4      0
                            ___awdiv
                            ___awmod
                             ___bmul
                         _clcd_print
                         _clcd_putch
                         _clear_clcd
 ---------------------------------------------------------------------------------
 (3) _clear_clcd                                           1     1      0     978
                                              7 COMMON     1     1      0
                         _clcd_write
 ---------------------------------------------------------------------------------
 (2) ___bmul                                               4     3      1     320
                                              3 COMMON     4     3      1
 ---------------------------------------------------------------------------------
 (2) ___awmod                                              7     3      4    1873
                                              8 COMMON     1     1      0
                                              4 BANK0      6     2      4
                            ___awdiv (ARG)
 ---------------------------------------------------------------------------------
 (2) ___awdiv                                              9     5      4    1516
                                              3 COMMON     5     1      4
                                              0 BANK0      4     4      0
 ---------------------------------------------------------------------------------
 (1) _read_matrix_keypad                                   3     3      0     203
                                              5 COMMON     3     3      0
                        _scan_keypad
 ---------------------------------------------------------------------------------
 (2) _scan_keypad                                          2     2      0      92
                                              3 COMMON     2     2      0
 ---------------------------------------------------------------------------------
 (1) _power_on_screen                                      5     5      0    8190
                                             12 BANK0      5     5      0
                         _clcd_print
                         _clcd_putch
 ---------------------------------------------------------------------------------
 (2) _clcd_putch                                           2     1      1    2238
                                             10 BANK0      2     1      1
                            ___awdiv (ARG)
                            ___awmod (ARG)
                         _clcd_write
 ---------------------------------------------------------------------------------
 (1) _init_config                                          0     0      0     978
                          _init_clcd
                 _init_matrix_keypad
                        _init_timer2
 ---------------------------------------------------------------------------------
 (2) _init_timer2                                          0     0      0       0
 ---------------------------------------------------------------------------------
 (2) _init_matrix_keypad                                   0     0      0       0
 ---------------------------------------------------------------------------------
 (2) _init_clcd                                            0     0      0     978
            _init_display_controller
 ---------------------------------------------------------------------------------
 (3) _init_display_controller                              2     2      0     978
                                              7 COMMON     2     2      0
                         _clcd_write
 ---------------------------------------------------------------------------------
 (1) _cooking_mode_display                                 1     1      0    5754
                                              7 COMMON     1     1      0
                         _clcd_print
 ---------------------------------------------------------------------------------
 (3) _clcd_print                                           3     0      3    5754
                                              0 BANK0      3     0      3
                         _clcd_write
 ---------------------------------------------------------------------------------
 (4) _clcd_write                                           4     3      1     978
                                              3 COMMON     4     3      1
 ---------------------------------------------------------------------------------
 Estimated maximum stack depth 4
 ---------------------------------------------------------------------------------
 (Depth) Function   	        Calls       Base Space   Used Autos Params    Refs
 ---------------------------------------------------------------------------------
 (5) _isr                                                  3     3      0       0
                                              0 COMMON     3     3      0
 ---------------------------------------------------------------------------------
 Estimated maximum stack depth 5
 ---------------------------------------------------------------------------------

 Call Graph Graphs:

 _main (ROOT)
   _clcd_print
     _clcd_write
   _clear_clcd
     _clcd_write
   _cooking_mode_display
     _clcd_print
   _init_config
     _init_clcd
       _init_display_controller
         _clcd_write
     _init_matrix_keypad
     _init_timer2
   _power_on_screen
     _clcd_print
     _clcd_putch
       ___awdiv (ARG)
       ___awmod (ARG)
         ___awdiv (ARG)
       _clcd_write (ARG)
   _read_matrix_keypad
     _scan_keypad
   _set_temp
     ___awdiv
     ___awmod
     ___bmul
     _clcd_print
     _clcd_putch
     _clear_clcd
   _set_time
     ___awdiv
     ___awmod
     ___bmul
     _clcd_print
     _clcd_putch
     _clear_clcd
   _time_display_screen
     ___awdiv
     ___awmod
     _clcd_print
     _clcd_putch
     _clear_clcd
     _door_status_check
       _clcd_print
       _clear_clcd

 _isr (ROOT)

 Address spaces:
Name               Size   Autos  Total    Cost      Usage
BANK3               60      0       0       9        0.0%
BITBANK3            60      0       0       8        0.0%
SFR3                 0      0       0       4        0.0%
BITSFR3              0      0       0       4        0.0%
BANK2               60      0       0      11        0.0%
BITBANK2            60      0       0      10        0.0%
SFR2                 0      0       0       5        0.0%
BITSFR2              0      0       0       5        0.0%
BANK1               50      0       0       7        0.0%
BITBANK1            50      0       0       6        0.0%
SFR1                 0      0       0       2        0.0%
BITSFR1              0      0       0       2        0.0%
BANK0               50     15      30       5       60.0%
BITBANK0            50      0       0       4        0.0%
SFR0                 0      0       0       1        0.0%
BITSFR0              0      0       0       1        0.0%
COMMON               E      9       B       1       78.6%
BITCOMMON            E      0       0       0        0.0%
CODE                 0      0       0       0        0.0%
DATA                 0      0      3B      12        0.0%
ABS                  0      0      3B       3        0.0%
NULL                 0      0       0       0        0.0%
STACK                0      0       0       2        0.0%
EEDATA             100      0       0       0        0.0%


Microchip Technology PIC Macro Assembler V2.32 build 20210201212658 
Symbol Table                                                                                   Fri Dec 24 09:17:15 2021

                               pc 0002                    ___bmul@product 0075                    clcd_print@addr 003D  
__size_of_init_display_controller 0063                                l65 0D18                                l73 0405  
                    ___awdiv@sign 003C                                fsr 0004                _init_matrix_keypad 0CD3  
                             l111 07FD                               l104 050A                               l121 07F0  
                             l105 050F                               l202 0EFA                               l106 0512  
                             l205 0CC5                               l214 0D70                               l118 0E97  
                             l208 0CF7                               l152 05D8                               l242 0720  
                             l154 05DE                               l251 074A                               l243 0728  
                             l155 05E6                               l260 077C                               l252 0752  
                             l244 07B3                               l148 01FC                               l237 0CE2  
                             l261 0788                               l253 075E                               l245 0734  
                             l173 033D                               l270 07AC                               l262 0782  
                             l254 0758                               l246 072E                               l182 03D3  
                             l159 0FFF                               l425 05FB                               l267 079E  
                             l259 0774                               l179 032D                               l268 07A6  
                             l278 0D3D                               l199 0DA6                               l295 0CD2  
                             l552 05AB                               l565 0E38                               _GIE 005F  
                             _RB0 0030                               _RB1 0031                               _RB2 0032  
                             _RC1 0039                               _RB3 0033                               _RC2 003A  
                             _RD0 0040                               _RD1 0041                               _RD2 0042  
                             _RE1 0049                               _RD3 0043                               _RE2 004A  
                             _PR2 0092                               _min 0035                               _sec 0036  
                             _isr 0DA7                    clcd_putch@addr 0045                               fsr0 0004  
                  clcd_putch@data 0046                               indf 0000                      ___awmod@sign 0044  
   __size_of_cooking_mode_display 003D               ?_init_matrix_keypad 0070                              l2001 0D27  
                            l2011 0D33                              l2021 0D3A                              l2023 0D3C  
                            l2007 0D29                              l2009 0D2E                              l2019 0D35  
                            l2501 0E6F                              l2431 0D48                              l1711 0EB7  
                            l2511 0E83                              l2433 0D58                              l1721 0ED9  
                            l1713 0EBC                              l1705 0E98                              l2513 0E89  
                            l2601 01CA                              l2521 0030                              l2441 05B5  
                            l2435 0D60                              l2515 07B4                              l1723 0EDE  
                            l1715 0EC3                              l1707 0EA0                              l1731 0CBE  
                            l2507 0E72                              l1803 0756                              l2451 0DE1  
                            l2611 01EF                              l2531 0038                              l2523 0032  
                            l2443 05BA                              l2429 0D3E                              l1725 0EEE  
                            l1717 0EC6                              l1709 0EA7                              l1733 0CBF  
                            l1741 0CDC                              l2509 0E7D                              l1813 0762  
                            l1901 058F                              l2461 0DF5                              l2453 0DE5  
                            l2621 020A                              l2605 01D3                              l2533 003C  
                            l2525 0034                              l2541 0073                              l2517 0026  
                            l2445 05C9                              l2437 05AC                              l2701 0FB1  
                            l1727 0EF5                              l1719 0ECD                              l1735 0CC0  
                            l1743 0CDF                              l1751 0CCA                              l1823 0780  
                            l1815 0766                              l1911 05A7                              l1903 0590  
                            l2471 0E0D                              l2463 0DFB                              l2455 0DEA  
                            l2631 023B                              l2623 020B                              l2607 01E1  
                            l2551 0099                              l2543 007B                              l2535 0049  
                            l2527 0035                              l2519 002C                              l2447 05E1  
                            l2439 05B2                              l2711 0FE0                              l2703 0FC0  
                            l1681 0D85                              l1673 0D72                              l1729 0CBB  
                            l1745 0CE0                              l1737 0CD3                              l1753 0CCE  
                            l1833 078C                              l1817 077A                              l1809 075C  
                            l1905 0597                              l2481 0E2F                              l2473 0E17  
                            l2465 0DFE                              l2457 0DEC                              l2449 0DDE  
                            l2641 0263                              l2625 0213                              l2633 024A  
                            l2617 0200                              l2561 00DE                              l2553 00AB  
                            l2545 0081                              l2537 0058                              l2529 0036  
                            l2721 0FF6                              l2713 0FE3                              l2705 0FC7  
                            l2801 04B3                              l1691 0D9D                              l1683 0D88  
                            l1675 0D7C                              l1747 0CE1                              l1739 0CDB  
                            l1755 0CCF                              l1843 07AA                              l1835 0790  
                            l1771 0708                              l1907 059D                              l2483 0E34  
                            l2475 0E1D                              l2467 0E05                              l2459 0DF0  
                            l2651 0293                              l2643 0270                              l2635 0252  
                            l2627 0220                              l2619 0206                              l2571 010C  
                            l2555 00AE                              l2547 0086                              l2563 00E2  
                            l2539 0064                              l2723 0FFB                              l2715 0FE4  
                            l2707 0FCC                              l2803 04B8                              l2731 03E3  
                            l1685 0D94                              l1677 0D7F                              l1749 0CC6  
                            l1757 0CE6                              l2493 0E3C                              l1853 07B2  
                            l1837 07A4                              l1829 0786                              l1773 070E  
                            l1909 05A2                              l2477 0E24                              l2469 0E09  
                            l1861 05ED                              l1693 07F1                              l2661 02BE  
                            l2653 0298                              l2637 0258                              l2645 0283  
                            l2629 022C                              l2581 012F                              l2573 011B  
                            l2565 00EA                              l2557 00BD                              l2549 008C  
                            l2717 0FE5                              l2709 0FD1                              l2821 04E8  
                            l2813 04CE                              l2805 04BE                              l2741 0406  
                            l2733 03E7                              l2725 03D4                              l1687 0D95  
                            l1679 0D80                              l2495 0E47                              l2487 0E39  
                            l1783 072C                              l1775 0712                              l1871 0543  
                            l2479 0E2A                              l1863 05F1                              l1695 07F8  
                            l2671 0393                              l2663 0326                              l2655 02A7  
                            l2647 0289                              l2639 025D                              l2591 0146  
                            l2583 0135                              l2575 011E                              l2567 00F7  
                            l2559 00CC                              l2719 0FF3                              l2831 0504  
                            l2823 04EE                              l2815 04D4                              l2807 04C3  
                            l2751 042D                              l2743 040B                              l2735 03F2  
                            l2727 03D9                              l1689 0D9A                              l1961 0D0C  
                            l1953 0CF8                              l2497 0E4D                              l1849 07B0  
                            l1793 0738                              l1777 0726                              l1881 0555  
                            l1873 0546                              l1865 05F3                              l1857 05E8  
                            l2681 03BE                              l2673 0394                              l2665 032E  
                            l2657 02B6                              l2649 028D                              l2593 0154  
                            l2585 0136                              l2569 00FD                              l2577 0122  
                            l2817 04DB                              l2809 04C9                              l2753 043B  
                            l2745 0411                              l2737 03F8                              l2729 03DE  
                            l1963 0D0F                              l1955 0D07                              l2499 0E53  
                            l1795 073C                              l1891 0569                              l1883 055A  
                            l1875 054A                              l1867 05FA                              l1859 05E9  
                            l2683 03C6                              l2675 03A1                              l2667 0333  
                            l2659 02BC                              l2595 016F                              l2579 012A  
                            l2587 0137                              l2691 0F4B                              l2827 04F7  
                            l2819 04E2                              l2771 046F                              l2763 0456  
                            l2747 0419                              l2755 0441                              l2739 03FE  
                            l1965 0D12                              l1957 0D08                              l1797 0750  
                            l1789 0732                              l1893 0570                              l1885 055E  
                            l1877 054F                              l2677 03A3                              l2669 0339  
                            l2597 018E                              l2589 0144                              l2693 0F57  
                            l2685 0EFB                              l2829 04FD                              l2781 047B  
                            l2773 0474                              l2765 045C                              l2757 0447  
                            l2749 041E                              l2837 0515                              l1967 0D15  
                            l1959 0D09                              l1895 0574                              l1887 0560  
                            l1879 0551                              l2679 03B1                              l2599 01AB  
                            l2695 0F74                              l2687 0F0F                              l2839 0539  
                            l2791 0497                              l2783 047F                              l2775 0475  
                            l2759 044D                              l1897 0578                              l1889 0566  
                            l2697 0F93                              l2689 0F2C                              l2793 049C  
                            l2785 0484                              l2777 0479                              l2769 0469  
                            l1899 0589                              l2699 0FA2                              l2795 04A2  
                            l2779 047A                              l2787 048B                              l1997 0D1A  
                            l2789 0491                              l2797 04AC                              l1999 0D22  
                            l2799 04B2                              l2897 051F                              l2899 01F4  
                            ?_isr 0070                              STR_1 0622                              STR_2 0611  
                            STR_3 0633                              STR_4 06E9                              STR_5 06E1  
                            STR_6 06A5                              STR_7 06F9                              STR_8 0644  
                            STR_9 0701                              u1100 0720                              u1101 071F  
                            u1110 0726                              u1111 0725                              u1040 0D79  
                            u1200 0780                              u1120 072C                              u1041 0D75  
                            u1201 077F                              u1121 072B                              u1210 0786  
                            u1130 0732                              u1211 0785                              u1131 0731  
                            u1220 079E                              u1140 074A                              u1300 0566  
                            u2100 0DE5                              u1221 079D                              u1141 0749  
                            u1301 0565                              u2101 0DE4                              u1054 0D7C  
                            u1230 07A4                              u1150 0750                              u2110 0DF0  
                            u1231 07A3                              u1151 074F                              u2111 0DEF  
                            u2200 0E89                              u1240 07AA                              u1160 0756  
                            u1320 0578                              u2120 0DFB                              u1065 0D8C  
                            u2201 0E88                              u1241 07A9                              u1161 0755  
                            u1321 0577                              u2121 0DFA                              u1250 07B0  
                            u1170 075C                              u2210 002C                              u1251 07AF  
                            u1171 075B                              u1315 056A                              u2211 002B  
                            u1180 0774                              u1500 0D2E                              u1340 0589  
                            u2140 0E0D                              u1260 05ED                              u2300 010C  
                            u2220 007B                              u1181 0773                              u1501 0D2D  
                            u1341 0588                              u2141 0E0C                              u1261 05EC  
                            u2301 010B                              u2221 007A                              u2070 0D70  
                            u1190 077A                              u1510 0D33                              u2150 0E17  
                            u1270 05FA                              u2310 011B                              u2230 0081  
                            u2071 0D6F                              u1191 0779                              u1511 0D32  
                            u1335 0579                              u2151 0E16                              u2135 0DFF  
                            u1271 05F9                              u2311 011A                              u2231 0080  
                            u1520 0D3A                              u1360 059D                              u1280 054A  
                            u2400 025D                              u2320 012A                              u2240 0086  
                            u2080 05B2                              u1521 0D39                              u1361 059C  
                            u1345 0585                              u1281 0549                              u2401 025C  
                            u2321 0129                              u2305 0108                              u2241 0085  
                            u2081 05B1                              u1370 05A2                              u1290 0555  
                            u2170 0E2A                              u2410 0270                              u2330 0144  
                            u2250 0099                              u2090 05DE                              u1371 05A1  
                            u1355 0591                              u1291 0554                              u2171 0E29  
                            u2155 0E13                              u2411 026F                              u2331 0143  
                            u2315 0117                              u2251 0098                              u2091 05DD  
                            u2180 0E2F                              u2420 0289                              u2340 014D  
                            u2260 00BD                              u2500 0FCC                              u2181 0E2E  
                            u2165 0E1E                              u2421 0288                              u2341 014B  
                            u2261 00BC                              u2501 0FCB                              u2190 0E53  
                            u2430 0293                              u2350 014E                              u2270 00CC  
                            u2510 03F8                              u2191 0E52                              u2431 0292  
                            u2415 026C                              u2271 00CB                              u2255 0095  
                            u2511 03F7                              u2440 032D                              u2360 01D2  
                            u2280 00EA                              u2600 0474                              u2520 03FE  
                            u2441 032C                              u2361 01D1                              u2281 00E9  
                            u2265 00B9                              u2601 0473                              u2521 03FD  
                            u1490 0D27                              u2450 03A1                              u2370 0206  
                            u2290 00F7                              u2610 0491                              u2530 0404  
                            u1491 0D26                              u2451 03A0                              u2371 0205  
                            u2291 00F6                              u2275 00C8                              u2611 0490  
                            u2531 0403                              u2460 03AA                              u2380 0252  
                            u2620 0497                              u2540 040B                              u2461 03A8  
                            u2381 0251                              u2621 0496                              u2541 040A  
                            u2470 03AB                              u2390 0258                              u2630 04A2  
                            u2550 0411                              u2391 0257                              u2295 00F3  
                            u2631 04A1                              u2551 0410                              u2480 03C6  
                            u2640 04B2                              u2560 0447                              u2481 03C5  
                            u2641 04B1                              u2561 0446                              u2490 0FC7  
                            u2650 04BE                              u2570 044D                              u2491 0FC6  
                            u2651 04BD                              u2571 044C                              u2707 0435  
                            u2660 04C9                              u2580 045C                              u2717 0FED  
                            u2661 04C8                              u2581 045B                              u2670 04E8  
                            u2590 046F                              u2807 0EF7                              u2727 07FA  
                            u2671 04E7                              u2591 046E                              u2680 04F6  
                            u2817 0D82                              u2737 0E91                              u2681 04F5  
                            u2690 04FD                              u2827 0D97                              u2747 0E9C  
                            u2691 04FC                              _PEIE 005E                              u2837 0DA1  
                            u2757 0EAB                              u2767 0EB9                              u2777 0ECF  
                            u2787 0EDB                              u2797 0EE9                              _flag 0079  
                            _main 03D4                              _temp 0034                              btemp 007E  
                            start 000C                 ___bmul@multiplier 0076              ??_init_matrix_keypad 0073  
                  clcd_write@byte 0076                    clcd_write@mode 0073        __size_of_door_status_check 003B  
         __end_of_power_on_screen 0E98                    _convec_mode_op 0031      __size_of_time_display_screen 0105  
                           ??_isr 0070                             ?_main 0070                   __end_of___awdiv 05AC  
                           STR_10 0666                             STR_11 060E                             STR_12 060E  
                           STR_20 0696                             STR_21 06D9                             STR_13 0655  
                           STR_22 0666                             STR_14 0687                             STR_15 06C7  
                           STR_23 0600                             STR_24 06B2                             STR_16 0677  
                           STR_25 060D                             STR_17 06D0                             STR_18 06F1  
                           STR_19 06BD                   __end_of___awmod 0E39                   ___awdiv@divisor 0073  
                           i1l313 0DD7                      ?_init_config 0070                   ___awdiv@counter 003B  
                           _PORTD 0008                             _TRISB 0086                             _TRISD 0088  
                    ?_init_timer2 0070                             _nRBPU 040F                _read_matrix_keypad 0D19  
                           pclath 000A               ?_read_matrix_keypad 0070                             status 0003  
                           wtemp0 007E                      ?_scan_keypad 0070                   __initialization 000F  
                    __end_of_main 0543              ??_read_matrix_keypad 0075                            ??_main 004C  
                ___awdiv@dividend 0075                            i1l2361 0DAD                            i1l2371 0DCB  
                          i1l2363 0DBC                            i1l2373 0DD0                            i1l2365 0DBE  
                          i1l2375 0DD2                            i1l2367 0DC3                            i1l2359 0DA7  
                          u202_20 0DAD                            i1l2369 0DC6                            i1l2377 0DD6  
                          u202_21 0DAC                            u203_20 0DBC                            u203_21 0DBB  
                          u204_20 0DC3                            u204_21 0DC2                            u205_20 0DCB  
                          u205_21 0DCA                            u206_20 0DD0                            u206_21 0DCF  
                          _TMR2IE 0461                            _TMR2IF 0061                            _TMR2ON 0092  
                          _TRISC1 0439                            _TRISB3 0433                            _TRISC2 043A  
                          _TRISE1 0449                            _TRISE2 044A                            ___bmul 05E7  
         _init_display_controller 0E98                         ??___awdiv 0077                  ?_power_on_screen 0070  
                       ??___awmod 0078                  ___awdiv@quotient 003D                   ___awmod@divisor 003F  
                 ___awmod@counter 0043                      __pdataCOMMON 007A                  __end_of_set_temp 03D4  
                __end_of_set_time 01FD                            saved_w 007E           __end_of__initialization 001F  
             ___bmul@multiplicand 0073                    __pcstackCOMMON 0070              __size_of_init_config 0021  
            __size_of_init_timer2 000D               _time_display_screen 0EFB                        __pbssBANK0 0020  
              __size_of_init_clcd 000B      __end_of_cooking_mode_display 07F1         ??_init_display_controller 0077  
                      _clcd_print 0D3E                        _clcd_putch 0CE3                        _clcd_write 0D71  
                      _clear_clcd 07F1              __size_of_scan_keypad 00AC                        __pmaintext 03D4  
                         ?___bmul 0073              ?_time_display_screen 0070                        __pintentry 0004  
                         _T2CKPS0 0090                           _T2CKPS1 0091                        __stringtab 0800  
                set_temp@temp_arr 0037                         ?_set_temp 0070                         ?_set_time 0070  
     __size_of_init_matrix_keypad 0010             ??_time_display_screen 0047                   __size_of___bmul 0015  
                         ___awdiv 0543                           ___awmod 0DDE                           __ptext1 0EFB  
                         __ptext2 05AC                           __ptext3 0023                           __ptext4 01FD  
                         __ptext5 07F1                           __ptext6 05E7                           __ptext7 0DDE  
                         __ptext8 0543                           __ptext9 0D19   __end_of_init_display_controller 0EFB  
               __end_of_init_clcd 0CC6                      __size_of_isr 0037                  ___awmod@dividend 0041  
                         main@key 004F                           clrloop0 0CB4              end_of_initialization 001F  
                     set_temp@key 004A                       set_time@key 004A                    _operation_mode 0033  
                     ?_clcd_print 003B                       ?_clcd_putch 0045                       ?_clcd_write 0073  
                      _reset_flag 0032                       ?_clear_clcd 0070                        ??_set_temp 0047  
                      ??_set_time 0047                      __pstringtext 0600       __size_of_read_matrix_keypad 0025  
            _cooking_mode_display 07B4                     clcd_print@str 003B                        _start_flag 0030  
                  __end_of___bmul 05FC                     __pidataCOMMON 07FE             ?_cooking_mode_display 0070  
        __size_of_power_on_screen 005F               start_initialization 000F               __size_of_clcd_print 0033  
                    scan_keypad@i 0073               __size_of_clcd_putch 0015               __size_of_clcd_write 0036  
          read_matrix_keypad@mode 0076            read_matrix_keypad@once 007A               __size_of_clear_clcd 000D  
                     __end_of_isr 0DDE                          ??___bmul 0074                     ??_init_config 0079  
                   ??_init_timer2 0073                       __pbssCOMMON 0079                         ___latbits 0002  
                   __pcstackBANK0 003B                     ??_scan_keypad 0073              power_on_screen@i_120 004B  
                        ?___awdiv 0073                          ?___awmod 003F                 __size_of_set_temp 01D7  
               __size_of_set_time 01DA                         __pstrings 0800            ??_cooking_mode_display 0077  
                       _init_clcd 0CBB               __end_of_init_config 0D19                 ??_power_on_screen 0047  
             __end_of_init_timer2 0CD3          ?_init_display_controller 0070                 interrupt_function 0004  
     __end_of_time_display_screen 1000                         clear_ram0 0CB3                      ??_clcd_print 0077  
                    ??_clcd_putch 0079        __end_of_init_matrix_keypad 0CE3                      ??_clcd_write 0074  
                    ??_clear_clcd 0077                 set_temp@key_count 0022               __end_of_scan_keypad 07B4  
                     __stringbase 0812                __end_of_clcd_print 0D71                __end_of_clcd_putch 0CF8  
              __end_of_clcd_write 0DA7                        ?_init_clcd 0070                __end_of_clear_clcd 07FE  
           read_matrix_keypad@key 0077                 set_time@blink_pos 0028                     set_temp@blink 0024  
                   set_time@blink 002C        __end_of_read_matrix_keypad 0D3E                  __size_of___awdiv 0069  
                __size_of___awmod 005B                __end_of__stringtab 0812                 set_time@key_count 002A  
                     _init_config 0CF8                       _init_timer2 0CC6                          __ptext10 0708  
                        __ptext11 0E39                          __ptext20 0D71                          __ptext12 0CE3  
                        __ptext21 0DA7                          __ptext13 0CF8                          __ptext14 0CC6  
                        __ptext15 0CD3                          __ptext16 0CBB                          __ptext17 0E98  
                        __ptext18 07B4                          __ptext19 0D3E                     __size_of_main 016F  
                     _scan_keypad 0708                          _set_temp 01FD                          _set_time 0023  
               _door_status_check 05AC                ?_door_status_check 0070                          isr@count 0020  
                    set_temp@wait 0026                      set_time@wait 002E               ??_door_status_check 0078  
                     ??_init_clcd 0079                          intlevel1 0000                         stringcode 080A  
       __end_of_door_status_check 05E7                   _power_on_screen 0E39                          stringtab 0800  
                power_on_screen@i 004A  
